
Compact DC Motor Driver V2.elf:     file format elf32-littlearm

Sections:
Idx Name          Size      VMA       LMA       File off  Algn
  0 .isr_vector   000000c0  08000000  08000000  00001000  2**0
                  CONTENTS, ALLOC, LOAD, READONLY, DATA
  1 .text         00002b48  080000c0  080000c0  000010c0  2**3
                  CONTENTS, ALLOC, LOAD, READONLY, CODE
  2 .rodata       00000084  08002c08  08002c08  00003c08  2**2
                  CONTENTS, ALLOC, LOAD, READONLY, DATA
  3 .ARM.extab    00000000  08002c8c  08002c8c  00004068  2**0
                  CONTENTS, READONLY
  4 .ARM          00000000  08002c8c  08002c8c  00004068  2**0
                  CONTENTS, READONLY
  5 .preinit_array 00000000  08002c8c  08002c8c  00004068  2**0
                  CONTENTS, ALLOC, LOAD, DATA
  6 .init_array   00000004  08002c8c  08002c8c  00003c8c  2**2
                  CONTENTS, ALLOC, LOAD, READONLY, DATA
  7 .fini_array   00000004  08002c90  08002c90  00003c90  2**2
                  CONTENTS, ALLOC, LOAD, READONLY, DATA
  8 .data         00000068  20000000  08002c94  00004000  2**2
                  CONTENTS, ALLOC, LOAD, CODE
  9 .bss          0000014c  20000068  08002cfc  00004068  2**2
                  ALLOC
 10 ._user_heap_stack 00000604  200001b4  08002cfc  000041b4  2**0
                  ALLOC
 11 .ARM.attributes 00000028  00000000  00000000  00004068  2**0
                  CONTENTS, READONLY
 12 .debug_info   00014d2e  00000000  00000000  00004090  2**0
                  CONTENTS, READONLY, DEBUGGING, OCTETS
 13 .debug_abbrev 00002a67  00000000  00000000  00018dbe  2**0
                  CONTENTS, READONLY, DEBUGGING, OCTETS
 14 .debug_loclists 00009b10  00000000  00000000  0001b825  2**0
                  CONTENTS, READONLY, DEBUGGING, OCTETS
 15 .debug_aranges 00000d08  00000000  00000000  00025338  2**3
                  CONTENTS, READONLY, DEBUGGING, OCTETS
 16 .debug_rnglists 00000eec  00000000  00000000  00026040  2**0
                  CONTENTS, READONLY, DEBUGGING, OCTETS
 17 .debug_macro  00014c54  00000000  00000000  00026f2c  2**0
                  CONTENTS, READONLY, DEBUGGING, OCTETS
 18 .debug_line   00015704  00000000  00000000  0003bb80  2**0
                  CONTENTS, READONLY, DEBUGGING, OCTETS
 19 .debug_str    00087e18  00000000  00000000  00051284  2**0
                  CONTENTS, READONLY, DEBUGGING, OCTETS
 20 .comment      00000043  00000000  00000000  000d909c  2**0
                  CONTENTS, READONLY
 21 .debug_frame  00002370  00000000  00000000  000d90e0  2**2
                  CONTENTS, READONLY, DEBUGGING, OCTETS
 22 .debug_line_str 000000c3  00000000  00000000  000db450  2**0
                  CONTENTS, READONLY, DEBUGGING, OCTETS

Disassembly of section .text:

080000c0 <__do_global_dtors_aux>:
 80000c0:	b510      	push	{r4, lr}
 80000c2:	4c06      	ldr	r4, [pc, #24]	@ (80000dc <__do_global_dtors_aux+0x1c>)
 80000c4:	7823      	ldrb	r3, [r4, #0]
 80000c6:	2b00      	cmp	r3, #0
 80000c8:	d107      	bne.n	80000da <__do_global_dtors_aux+0x1a>
 80000ca:	4b05      	ldr	r3, [pc, #20]	@ (80000e0 <__do_global_dtors_aux+0x20>)
 80000cc:	2b00      	cmp	r3, #0
 80000ce:	d002      	beq.n	80000d6 <__do_global_dtors_aux+0x16>
 80000d0:	4804      	ldr	r0, [pc, #16]	@ (80000e4 <__do_global_dtors_aux+0x24>)
 80000d2:	e000      	b.n	80000d6 <__do_global_dtors_aux+0x16>
 80000d4:	bf00      	nop
 80000d6:	2301      	movs	r3, #1
 80000d8:	7023      	strb	r3, [r4, #0]
 80000da:	bd10      	pop	{r4, pc}
 80000dc:	20000068 	.word	0x20000068
 80000e0:	00000000 	.word	0x00000000
 80000e4:	08002be0 	.word	0x08002be0

080000e8 <frame_dummy>:
 80000e8:	4b04      	ldr	r3, [pc, #16]	@ (80000fc <frame_dummy+0x14>)
 80000ea:	b510      	push	{r4, lr}
 80000ec:	2b00      	cmp	r3, #0
 80000ee:	d003      	beq.n	80000f8 <frame_dummy+0x10>
 80000f0:	4903      	ldr	r1, [pc, #12]	@ (8000100 <frame_dummy+0x18>)
 80000f2:	4804      	ldr	r0, [pc, #16]	@ (8000104 <frame_dummy+0x1c>)
 80000f4:	e000      	b.n	80000f8 <frame_dummy+0x10>
 80000f6:	bf00      	nop
 80000f8:	bd10      	pop	{r4, pc}
 80000fa:	46c0      	nop			@ (mov r8, r8)
 80000fc:	00000000 	.word	0x00000000
 8000100:	2000006c 	.word	0x2000006c
 8000104:	08002be0 	.word	0x08002be0

08000108 <__gnu_thumb1_case_uqi>:
 8000108:	b402      	push	{r1}
 800010a:	4671      	mov	r1, lr
 800010c:	0849      	lsrs	r1, r1, #1
 800010e:	0049      	lsls	r1, r1, #1
 8000110:	5c09      	ldrb	r1, [r1, r0]
 8000112:	0049      	lsls	r1, r1, #1
 8000114:	448e      	add	lr, r1
 8000116:	bc02      	pop	{r1}
 8000118:	4770      	bx	lr
 800011a:	46c0      	nop			@ (mov r8, r8)

0800011c <__gnu_thumb1_case_uhi>:
 800011c:	b403      	push	{r0, r1}
 800011e:	4671      	mov	r1, lr
 8000120:	0849      	lsrs	r1, r1, #1
 8000122:	0040      	lsls	r0, r0, #1
 8000124:	0049      	lsls	r1, r1, #1
 8000126:	5a09      	ldrh	r1, [r1, r0]
 8000128:	0049      	lsls	r1, r1, #1
 800012a:	448e      	add	lr, r1
 800012c:	bc03      	pop	{r0, r1}
 800012e:	4770      	bx	lr

08000130 <__udivsi3>:
 8000130:	2200      	movs	r2, #0
 8000132:	0843      	lsrs	r3, r0, #1
 8000134:	428b      	cmp	r3, r1
 8000136:	d374      	bcc.n	8000222 <__udivsi3+0xf2>
 8000138:	0903      	lsrs	r3, r0, #4
 800013a:	428b      	cmp	r3, r1
 800013c:	d35f      	bcc.n	80001fe <__udivsi3+0xce>
 800013e:	0a03      	lsrs	r3, r0, #8
 8000140:	428b      	cmp	r3, r1
 8000142:	d344      	bcc.n	80001ce <__udivsi3+0x9e>
 8000144:	0b03      	lsrs	r3, r0, #12
 8000146:	428b      	cmp	r3, r1
 8000148:	d328      	bcc.n	800019c <__udivsi3+0x6c>
 800014a:	0c03      	lsrs	r3, r0, #16
 800014c:	428b      	cmp	r3, r1
 800014e:	d30d      	bcc.n	800016c <__udivsi3+0x3c>
 8000150:	22ff      	movs	r2, #255	@ 0xff
 8000152:	0209      	lsls	r1, r1, #8
 8000154:	ba12      	rev	r2, r2
 8000156:	0c03      	lsrs	r3, r0, #16
 8000158:	428b      	cmp	r3, r1
 800015a:	d302      	bcc.n	8000162 <__udivsi3+0x32>
 800015c:	1212      	asrs	r2, r2, #8
 800015e:	0209      	lsls	r1, r1, #8
 8000160:	d065      	beq.n	800022e <__udivsi3+0xfe>
 8000162:	0b03      	lsrs	r3, r0, #12
 8000164:	428b      	cmp	r3, r1
 8000166:	d319      	bcc.n	800019c <__udivsi3+0x6c>
 8000168:	e000      	b.n	800016c <__udivsi3+0x3c>
 800016a:	0a09      	lsrs	r1, r1, #8
 800016c:	0bc3      	lsrs	r3, r0, #15
 800016e:	428b      	cmp	r3, r1
 8000170:	d301      	bcc.n	8000176 <__udivsi3+0x46>
 8000172:	03cb      	lsls	r3, r1, #15
 8000174:	1ac0      	subs	r0, r0, r3
 8000176:	4152      	adcs	r2, r2
 8000178:	0b83      	lsrs	r3, r0, #14
 800017a:	428b      	cmp	r3, r1
 800017c:	d301      	bcc.n	8000182 <__udivsi3+0x52>
 800017e:	038b      	lsls	r3, r1, #14
 8000180:	1ac0      	subs	r0, r0, r3
 8000182:	4152      	adcs	r2, r2
 8000184:	0b43      	lsrs	r3, r0, #13
 8000186:	428b      	cmp	r3, r1
 8000188:	d301      	bcc.n	800018e <__udivsi3+0x5e>
 800018a:	034b      	lsls	r3, r1, #13
 800018c:	1ac0      	subs	r0, r0, r3
 800018e:	4152      	adcs	r2, r2
 8000190:	0b03      	lsrs	r3, r0, #12
 8000192:	428b      	cmp	r3, r1
 8000194:	d301      	bcc.n	800019a <__udivsi3+0x6a>
 8000196:	030b      	lsls	r3, r1, #12
 8000198:	1ac0      	subs	r0, r0, r3
 800019a:	4152      	adcs	r2, r2
 800019c:	0ac3      	lsrs	r3, r0, #11
 800019e:	428b      	cmp	r3, r1
 80001a0:	d301      	bcc.n	80001a6 <__udivsi3+0x76>
 80001a2:	02cb      	lsls	r3, r1, #11
 80001a4:	1ac0      	subs	r0, r0, r3
 80001a6:	4152      	adcs	r2, r2
 80001a8:	0a83      	lsrs	r3, r0, #10
 80001aa:	428b      	cmp	r3, r1
 80001ac:	d301      	bcc.n	80001b2 <__udivsi3+0x82>
 80001ae:	028b      	lsls	r3, r1, #10
 80001b0:	1ac0      	subs	r0, r0, r3
 80001b2:	4152      	adcs	r2, r2
 80001b4:	0a43      	lsrs	r3, r0, #9
 80001b6:	428b      	cmp	r3, r1
 80001b8:	d301      	bcc.n	80001be <__udivsi3+0x8e>
 80001ba:	024b      	lsls	r3, r1, #9
 80001bc:	1ac0      	subs	r0, r0, r3
 80001be:	4152      	adcs	r2, r2
 80001c0:	0a03      	lsrs	r3, r0, #8
 80001c2:	428b      	cmp	r3, r1
 80001c4:	d301      	bcc.n	80001ca <__udivsi3+0x9a>
 80001c6:	020b      	lsls	r3, r1, #8
 80001c8:	1ac0      	subs	r0, r0, r3
 80001ca:	4152      	adcs	r2, r2
 80001cc:	d2cd      	bcs.n	800016a <__udivsi3+0x3a>
 80001ce:	09c3      	lsrs	r3, r0, #7
 80001d0:	428b      	cmp	r3, r1
 80001d2:	d301      	bcc.n	80001d8 <__udivsi3+0xa8>
 80001d4:	01cb      	lsls	r3, r1, #7
 80001d6:	1ac0      	subs	r0, r0, r3
 80001d8:	4152      	adcs	r2, r2
 80001da:	0983      	lsrs	r3, r0, #6
 80001dc:	428b      	cmp	r3, r1
 80001de:	d301      	bcc.n	80001e4 <__udivsi3+0xb4>
 80001e0:	018b      	lsls	r3, r1, #6
 80001e2:	1ac0      	subs	r0, r0, r3
 80001e4:	4152      	adcs	r2, r2
 80001e6:	0943      	lsrs	r3, r0, #5
 80001e8:	428b      	cmp	r3, r1
 80001ea:	d301      	bcc.n	80001f0 <__udivsi3+0xc0>
 80001ec:	014b      	lsls	r3, r1, #5
 80001ee:	1ac0      	subs	r0, r0, r3
 80001f0:	4152      	adcs	r2, r2
 80001f2:	0903      	lsrs	r3, r0, #4
 80001f4:	428b      	cmp	r3, r1
 80001f6:	d301      	bcc.n	80001fc <__udivsi3+0xcc>
 80001f8:	010b      	lsls	r3, r1, #4
 80001fa:	1ac0      	subs	r0, r0, r3
 80001fc:	4152      	adcs	r2, r2
 80001fe:	08c3      	lsrs	r3, r0, #3
 8000200:	428b      	cmp	r3, r1
 8000202:	d301      	bcc.n	8000208 <__udivsi3+0xd8>
 8000204:	00cb      	lsls	r3, r1, #3
 8000206:	1ac0      	subs	r0, r0, r3
 8000208:	4152      	adcs	r2, r2
 800020a:	0883      	lsrs	r3, r0, #2
 800020c:	428b      	cmp	r3, r1
 800020e:	d301      	bcc.n	8000214 <__udivsi3+0xe4>
 8000210:	008b      	lsls	r3, r1, #2
 8000212:	1ac0      	subs	r0, r0, r3
 8000214:	4152      	adcs	r2, r2
 8000216:	0843      	lsrs	r3, r0, #1
 8000218:	428b      	cmp	r3, r1
 800021a:	d301      	bcc.n	8000220 <__udivsi3+0xf0>
 800021c:	004b      	lsls	r3, r1, #1
 800021e:	1ac0      	subs	r0, r0, r3
 8000220:	4152      	adcs	r2, r2
 8000222:	1a41      	subs	r1, r0, r1
 8000224:	d200      	bcs.n	8000228 <__udivsi3+0xf8>
 8000226:	4601      	mov	r1, r0
 8000228:	4152      	adcs	r2, r2
 800022a:	4610      	mov	r0, r2
 800022c:	4770      	bx	lr
 800022e:	e7ff      	b.n	8000230 <__udivsi3+0x100>
 8000230:	b501      	push	{r0, lr}
 8000232:	2000      	movs	r0, #0
 8000234:	f000 f8f0 	bl	8000418 <__aeabi_idiv0>
 8000238:	bd02      	pop	{r1, pc}
 800023a:	46c0      	nop			@ (mov r8, r8)

0800023c <__aeabi_uidivmod>:
 800023c:	2900      	cmp	r1, #0
 800023e:	d0f7      	beq.n	8000230 <__udivsi3+0x100>
 8000240:	e776      	b.n	8000130 <__udivsi3>
 8000242:	4770      	bx	lr

08000244 <__divsi3>:
 8000244:	4603      	mov	r3, r0
 8000246:	430b      	orrs	r3, r1
 8000248:	d47f      	bmi.n	800034a <__divsi3+0x106>
 800024a:	2200      	movs	r2, #0
 800024c:	0843      	lsrs	r3, r0, #1
 800024e:	428b      	cmp	r3, r1
 8000250:	d374      	bcc.n	800033c <__divsi3+0xf8>
 8000252:	0903      	lsrs	r3, r0, #4
 8000254:	428b      	cmp	r3, r1
 8000256:	d35f      	bcc.n	8000318 <__divsi3+0xd4>
 8000258:	0a03      	lsrs	r3, r0, #8
 800025a:	428b      	cmp	r3, r1
 800025c:	d344      	bcc.n	80002e8 <__divsi3+0xa4>
 800025e:	0b03      	lsrs	r3, r0, #12
 8000260:	428b      	cmp	r3, r1
 8000262:	d328      	bcc.n	80002b6 <__divsi3+0x72>
 8000264:	0c03      	lsrs	r3, r0, #16
 8000266:	428b      	cmp	r3, r1
 8000268:	d30d      	bcc.n	8000286 <__divsi3+0x42>
 800026a:	22ff      	movs	r2, #255	@ 0xff
 800026c:	0209      	lsls	r1, r1, #8
 800026e:	ba12      	rev	r2, r2
 8000270:	0c03      	lsrs	r3, r0, #16
 8000272:	428b      	cmp	r3, r1
 8000274:	d302      	bcc.n	800027c <__divsi3+0x38>
 8000276:	1212      	asrs	r2, r2, #8
 8000278:	0209      	lsls	r1, r1, #8
 800027a:	d065      	beq.n	8000348 <__divsi3+0x104>
 800027c:	0b03      	lsrs	r3, r0, #12
 800027e:	428b      	cmp	r3, r1
 8000280:	d319      	bcc.n	80002b6 <__divsi3+0x72>
 8000282:	e000      	b.n	8000286 <__divsi3+0x42>
 8000284:	0a09      	lsrs	r1, r1, #8
 8000286:	0bc3      	lsrs	r3, r0, #15
 8000288:	428b      	cmp	r3, r1
 800028a:	d301      	bcc.n	8000290 <__divsi3+0x4c>
 800028c:	03cb      	lsls	r3, r1, #15
 800028e:	1ac0      	subs	r0, r0, r3
 8000290:	4152      	adcs	r2, r2
 8000292:	0b83      	lsrs	r3, r0, #14
 8000294:	428b      	cmp	r3, r1
 8000296:	d301      	bcc.n	800029c <__divsi3+0x58>
 8000298:	038b      	lsls	r3, r1, #14
 800029a:	1ac0      	subs	r0, r0, r3
 800029c:	4152      	adcs	r2, r2
 800029e:	0b43      	lsrs	r3, r0, #13
 80002a0:	428b      	cmp	r3, r1
 80002a2:	d301      	bcc.n	80002a8 <__divsi3+0x64>
 80002a4:	034b      	lsls	r3, r1, #13
 80002a6:	1ac0      	subs	r0, r0, r3
 80002a8:	4152      	adcs	r2, r2
 80002aa:	0b03      	lsrs	r3, r0, #12
 80002ac:	428b      	cmp	r3, r1
 80002ae:	d301      	bcc.n	80002b4 <__divsi3+0x70>
 80002b0:	030b      	lsls	r3, r1, #12
 80002b2:	1ac0      	subs	r0, r0, r3
 80002b4:	4152      	adcs	r2, r2
 80002b6:	0ac3      	lsrs	r3, r0, #11
 80002b8:	428b      	cmp	r3, r1
 80002ba:	d301      	bcc.n	80002c0 <__divsi3+0x7c>
 80002bc:	02cb      	lsls	r3, r1, #11
 80002be:	1ac0      	subs	r0, r0, r3
 80002c0:	4152      	adcs	r2, r2
 80002c2:	0a83      	lsrs	r3, r0, #10
 80002c4:	428b      	cmp	r3, r1
 80002c6:	d301      	bcc.n	80002cc <__divsi3+0x88>
 80002c8:	028b      	lsls	r3, r1, #10
 80002ca:	1ac0      	subs	r0, r0, r3
 80002cc:	4152      	adcs	r2, r2
 80002ce:	0a43      	lsrs	r3, r0, #9
 80002d0:	428b      	cmp	r3, r1
 80002d2:	d301      	bcc.n	80002d8 <__divsi3+0x94>
 80002d4:	024b      	lsls	r3, r1, #9
 80002d6:	1ac0      	subs	r0, r0, r3
 80002d8:	4152      	adcs	r2, r2
 80002da:	0a03      	lsrs	r3, r0, #8
 80002dc:	428b      	cmp	r3, r1
 80002de:	d301      	bcc.n	80002e4 <__divsi3+0xa0>
 80002e0:	020b      	lsls	r3, r1, #8
 80002e2:	1ac0      	subs	r0, r0, r3
 80002e4:	4152      	adcs	r2, r2
 80002e6:	d2cd      	bcs.n	8000284 <__divsi3+0x40>
 80002e8:	09c3      	lsrs	r3, r0, #7
 80002ea:	428b      	cmp	r3, r1
 80002ec:	d301      	bcc.n	80002f2 <__divsi3+0xae>
 80002ee:	01cb      	lsls	r3, r1, #7
 80002f0:	1ac0      	subs	r0, r0, r3
 80002f2:	4152      	adcs	r2, r2
 80002f4:	0983      	lsrs	r3, r0, #6
 80002f6:	428b      	cmp	r3, r1
 80002f8:	d301      	bcc.n	80002fe <__divsi3+0xba>
 80002fa:	018b      	lsls	r3, r1, #6
 80002fc:	1ac0      	subs	r0, r0, r3
 80002fe:	4152      	adcs	r2, r2
 8000300:	0943      	lsrs	r3, r0, #5
 8000302:	428b      	cmp	r3, r1
 8000304:	d301      	bcc.n	800030a <__divsi3+0xc6>
 8000306:	014b      	lsls	r3, r1, #5
 8000308:	1ac0      	subs	r0, r0, r3
 800030a:	4152      	adcs	r2, r2
 800030c:	0903      	lsrs	r3, r0, #4
 800030e:	428b      	cmp	r3, r1
 8000310:	d301      	bcc.n	8000316 <__divsi3+0xd2>
 8000312:	010b      	lsls	r3, r1, #4
 8000314:	1ac0      	subs	r0, r0, r3
 8000316:	4152      	adcs	r2, r2
 8000318:	08c3      	lsrs	r3, r0, #3
 800031a:	428b      	cmp	r3, r1
 800031c:	d301      	bcc.n	8000322 <__divsi3+0xde>
 800031e:	00cb      	lsls	r3, r1, #3
 8000320:	1ac0      	subs	r0, r0, r3
 8000322:	4152      	adcs	r2, r2
 8000324:	0883      	lsrs	r3, r0, #2
 8000326:	428b      	cmp	r3, r1
 8000328:	d301      	bcc.n	800032e <__divsi3+0xea>
 800032a:	008b      	lsls	r3, r1, #2
 800032c:	1ac0      	subs	r0, r0, r3
 800032e:	4152      	adcs	r2, r2
 8000330:	0843      	lsrs	r3, r0, #1
 8000332:	428b      	cmp	r3, r1
 8000334:	d301      	bcc.n	800033a <__divsi3+0xf6>
 8000336:	004b      	lsls	r3, r1, #1
 8000338:	1ac0      	subs	r0, r0, r3
 800033a:	4152      	adcs	r2, r2
 800033c:	1a41      	subs	r1, r0, r1
 800033e:	d200      	bcs.n	8000342 <__divsi3+0xfe>
 8000340:	4601      	mov	r1, r0
 8000342:	4152      	adcs	r2, r2
 8000344:	4610      	mov	r0, r2
 8000346:	4770      	bx	lr
 8000348:	e05d      	b.n	8000406 <__divsi3+0x1c2>
 800034a:	0fca      	lsrs	r2, r1, #31
 800034c:	d000      	beq.n	8000350 <__divsi3+0x10c>
 800034e:	4249      	negs	r1, r1
 8000350:	1003      	asrs	r3, r0, #32
 8000352:	d300      	bcc.n	8000356 <__divsi3+0x112>
 8000354:	4240      	negs	r0, r0
 8000356:	4053      	eors	r3, r2
 8000358:	2200      	movs	r2, #0
 800035a:	469c      	mov	ip, r3
 800035c:	0903      	lsrs	r3, r0, #4
 800035e:	428b      	cmp	r3, r1
 8000360:	d32d      	bcc.n	80003be <__divsi3+0x17a>
 8000362:	0a03      	lsrs	r3, r0, #8
 8000364:	428b      	cmp	r3, r1
 8000366:	d312      	bcc.n	800038e <__divsi3+0x14a>
 8000368:	22fc      	movs	r2, #252	@ 0xfc
 800036a:	0189      	lsls	r1, r1, #6
 800036c:	ba12      	rev	r2, r2
 800036e:	0a03      	lsrs	r3, r0, #8
 8000370:	428b      	cmp	r3, r1
 8000372:	d30c      	bcc.n	800038e <__divsi3+0x14a>
 8000374:	0189      	lsls	r1, r1, #6
 8000376:	1192      	asrs	r2, r2, #6
 8000378:	428b      	cmp	r3, r1
 800037a:	d308      	bcc.n	800038e <__divsi3+0x14a>
 800037c:	0189      	lsls	r1, r1, #6
 800037e:	1192      	asrs	r2, r2, #6
 8000380:	428b      	cmp	r3, r1
 8000382:	d304      	bcc.n	800038e <__divsi3+0x14a>
 8000384:	0189      	lsls	r1, r1, #6
 8000386:	d03a      	beq.n	80003fe <__divsi3+0x1ba>
 8000388:	1192      	asrs	r2, r2, #6
 800038a:	e000      	b.n	800038e <__divsi3+0x14a>
 800038c:	0989      	lsrs	r1, r1, #6
 800038e:	09c3      	lsrs	r3, r0, #7
 8000390:	428b      	cmp	r3, r1
 8000392:	d301      	bcc.n	8000398 <__divsi3+0x154>
 8000394:	01cb      	lsls	r3, r1, #7
 8000396:	1ac0      	subs	r0, r0, r3
 8000398:	4152      	adcs	r2, r2
 800039a:	0983      	lsrs	r3, r0, #6
 800039c:	428b      	cmp	r3, r1
 800039e:	d301      	bcc.n	80003a4 <__divsi3+0x160>
 80003a0:	018b      	lsls	r3, r1, #6
 80003a2:	1ac0      	subs	r0, r0, r3
 80003a4:	4152      	adcs	r2, r2
 80003a6:	0943      	lsrs	r3, r0, #5
 80003a8:	428b      	cmp	r3, r1
 80003aa:	d301      	bcc.n	80003b0 <__divsi3+0x16c>
 80003ac:	014b      	lsls	r3, r1, #5
 80003ae:	1ac0      	subs	r0, r0, r3
 80003b0:	4152      	adcs	r2, r2
 80003b2:	0903      	lsrs	r3, r0, #4
 80003b4:	428b      	cmp	r3, r1
 80003b6:	d301      	bcc.n	80003bc <__divsi3+0x178>
 80003b8:	010b      	lsls	r3, r1, #4
 80003ba:	1ac0      	subs	r0, r0, r3
 80003bc:	4152      	adcs	r2, r2
 80003be:	08c3      	lsrs	r3, r0, #3
 80003c0:	428b      	cmp	r3, r1
 80003c2:	d301      	bcc.n	80003c8 <__divsi3+0x184>
 80003c4:	00cb      	lsls	r3, r1, #3
 80003c6:	1ac0      	subs	r0, r0, r3
 80003c8:	4152      	adcs	r2, r2
 80003ca:	0883      	lsrs	r3, r0, #2
 80003cc:	428b      	cmp	r3, r1
 80003ce:	d301      	bcc.n	80003d4 <__divsi3+0x190>
 80003d0:	008b      	lsls	r3, r1, #2
 80003d2:	1ac0      	subs	r0, r0, r3
 80003d4:	4152      	adcs	r2, r2
 80003d6:	d2d9      	bcs.n	800038c <__divsi3+0x148>
 80003d8:	0843      	lsrs	r3, r0, #1
 80003da:	428b      	cmp	r3, r1
 80003dc:	d301      	bcc.n	80003e2 <__divsi3+0x19e>
 80003de:	004b      	lsls	r3, r1, #1
 80003e0:	1ac0      	subs	r0, r0, r3
 80003e2:	4152      	adcs	r2, r2
 80003e4:	1a41      	subs	r1, r0, r1
 80003e6:	d200      	bcs.n	80003ea <__divsi3+0x1a6>
 80003e8:	4601      	mov	r1, r0
 80003ea:	4663      	mov	r3, ip
 80003ec:	4152      	adcs	r2, r2
 80003ee:	105b      	asrs	r3, r3, #1
 80003f0:	4610      	mov	r0, r2
 80003f2:	d301      	bcc.n	80003f8 <__divsi3+0x1b4>
 80003f4:	4240      	negs	r0, r0
 80003f6:	2b00      	cmp	r3, #0
 80003f8:	d500      	bpl.n	80003fc <__divsi3+0x1b8>
 80003fa:	4249      	negs	r1, r1
 80003fc:	4770      	bx	lr
 80003fe:	4663      	mov	r3, ip
 8000400:	105b      	asrs	r3, r3, #1
 8000402:	d300      	bcc.n	8000406 <__divsi3+0x1c2>
 8000404:	4240      	negs	r0, r0
 8000406:	b501      	push	{r0, lr}
 8000408:	2000      	movs	r0, #0
 800040a:	f000 f805 	bl	8000418 <__aeabi_idiv0>
 800040e:	bd02      	pop	{r1, pc}

08000410 <__aeabi_idivmod>:
 8000410:	2900      	cmp	r1, #0
 8000412:	d0f8      	beq.n	8000406 <__divsi3+0x1c2>
 8000414:	e716      	b.n	8000244 <__divsi3>
 8000416:	4770      	bx	lr

08000418 <__aeabi_idiv0>:
 8000418:	4770      	bx	lr
 800041a:	46c0      	nop			@ (mov r8, r8)

0800041c <HAL_UART_RxCpltCallback>:
void HAL_UART_RxCpltCallback(UART_HandleTypeDef *huart)
{
//	HAL_GPIO_WritePin(GPIOA, GPIO_PIN_8, GPIO_PIN_SET);
//			HAL_UART_Transmit(&huart2, &rx_byte, 1, HAL_MAX_DELAY);
	//Running the code on USART1 only, (the raw uart line coming in), will need more logic when coming over RS485 bus
	if(huart->Instance == USART2){
 800041c:	4b22      	ldr	r3, [pc, #136]	@ (80004a8 <HAL_UART_RxCpltCallback+0x8c>)
 800041e:	6802      	ldr	r2, [r0, #0]
{
 8000420:	b570      	push	{r4, r5, r6, lr}
	if(huart->Instance == USART2){
 8000422:	429a      	cmp	r2, r3
 8000424:	d10c      	bne.n	8000440 <HAL_UART_RxCpltCallback+0x24>

		char c = (char)rx_byte;
 8000426:	4921      	ldr	r1, [pc, #132]	@ (80004ac <HAL_UART_RxCpltCallback+0x90>)
 8000428:	4b21      	ldr	r3, [pc, #132]	@ (80004b0 <HAL_UART_RxCpltCallback+0x94>)
 800042a:	780a      	ldrb	r2, [r1, #0]
//			targetAngle = 1000;
//			target_hit = 0;
//		}
//		HAL_GPIO_WritePin(GPIOA, GPIO_PIN_8, GPIO_PIN_SET);
//		HAL_UART_Transmit(&huart2, &rx_byte, 1, HAL_MAX_DELAY);
		if(c == '{'){
 800042c:	4c21      	ldr	r4, [pc, #132]	@ (80004b4 <HAL_UART_RxCpltCallback+0x98>)
 800042e:	2a7b      	cmp	r2, #123	@ 0x7b
 8000430:	d107      	bne.n	8000442 <HAL_UART_RxCpltCallback+0x26>
			rx_buffer_index = 1;
 8000432:	2001      	movs	r0, #1
 8000434:	7018      	strb	r0, [r3, #0]
			rx_buffer[0] = rx_byte;
 8000436:	7022      	strb	r2, [r4, #0]
			}
		}


		// Restarting the interupt loop
		HAL_UART_Receive_IT(&huart2, &rx_byte, 1);
 8000438:	2201      	movs	r2, #1
 800043a:	481f      	ldr	r0, [pc, #124]	@ (80004b8 <HAL_UART_RxCpltCallback+0x9c>)
 800043c:	f002 fb30 	bl	8002aa0 <HAL_UART_Receive_IT>
	}

}
 8000440:	bd70      	pop	{r4, r5, r6, pc}
			rx_buffer[rx_buffer_index] = rx_byte;
 8000442:	7818      	ldrb	r0, [r3, #0]
 8000444:	b2c0      	uxtb	r0, r0
 8000446:	5422      	strb	r2, [r4, r0]
		} else if (c == '}'){
 8000448:	2a7d      	cmp	r2, #125	@ 0x7d
 800044a:	d124      	bne.n	8000496 <HAL_UART_RxCpltCallback+0x7a>
			for(int i = 0; i < RX_BUFFER_SIZE; i++){
 800044c:	2200      	movs	r2, #0
					command_buffer[i] = 0;
 800044e:	0016      	movs	r6, r2
 8000450:	481a      	ldr	r0, [pc, #104]	@ (80004bc <HAL_UART_RxCpltCallback+0xa0>)
				if(i <= rx_buffer_index){
 8000452:	781d      	ldrb	r5, [r3, #0]
 8000454:	4295      	cmp	r5, r2
 8000456:	db1a      	blt.n	800048e <HAL_UART_RxCpltCallback+0x72>
					command_buffer[i] = rx_buffer[i];
 8000458:	5ca5      	ldrb	r5, [r4, r2]
 800045a:	b2ed      	uxtb	r5, r5
 800045c:	5485      	strb	r5, [r0, r2]
			for(int i = 0; i < RX_BUFFER_SIZE; i++){
 800045e:	3201      	adds	r2, #1
 8000460:	2a10      	cmp	r2, #16
 8000462:	d1f6      	bne.n	8000452 <HAL_UART_RxCpltCallback+0x36>
			if ((char)command_buffer[1] != '}' && (char)command_buffer[0] == '{' && (char)command_buffer[3] == ',') {
 8000464:	7842      	ldrb	r2, [r0, #1]
 8000466:	4c16      	ldr	r4, [pc, #88]	@ (80004c0 <HAL_UART_RxCpltCallback+0xa4>)
 8000468:	2a7d      	cmp	r2, #125	@ 0x7d
 800046a:	d012      	beq.n	8000492 <HAL_UART_RxCpltCallback+0x76>
 800046c:	7802      	ldrb	r2, [r0, #0]
 800046e:	2a7b      	cmp	r2, #123	@ 0x7b
 8000470:	d10f      	bne.n	8000492 <HAL_UART_RxCpltCallback+0x76>
 8000472:	78c2      	ldrb	r2, [r0, #3]
 8000474:	2a2c      	cmp	r2, #44	@ 0x2c
 8000476:	d10c      	bne.n	8000492 <HAL_UART_RxCpltCallback+0x76>
			    command_int = (command_buffer[4] - '0') * 10 + (command_buffer[5] - '0'); // now supports 2-digit commands
 8000478:	7905      	ldrb	r5, [r0, #4]
 800047a:	3a22      	subs	r2, #34	@ 0x22
 800047c:	436a      	muls	r2, r5
 800047e:	7940      	ldrb	r0, [r0, #5]
 8000480:	3810      	subs	r0, #16
 8000482:	1812      	adds	r2, r2, r0
 8000484:	b2d2      	uxtb	r2, r2
			    command_int = 0;
 8000486:	7022      	strb	r2, [r4, #0]
				rx_buffer_index = 0;
 8000488:	2200      	movs	r2, #0
 800048a:	701a      	strb	r2, [r3, #0]
 800048c:	e7d4      	b.n	8000438 <HAL_UART_RxCpltCallback+0x1c>
					command_buffer[i] = 0;
 800048e:	5486      	strb	r6, [r0, r2]
 8000490:	e7e5      	b.n	800045e <HAL_UART_RxCpltCallback+0x42>
			    command_int = 0;
 8000492:	2200      	movs	r2, #0
 8000494:	e7f7      	b.n	8000486 <HAL_UART_RxCpltCallback+0x6a>
			rx_buffer_index++;
 8000496:	781a      	ldrb	r2, [r3, #0]
 8000498:	3201      	adds	r2, #1
 800049a:	b2d2      	uxtb	r2, r2
 800049c:	701a      	strb	r2, [r3, #0]
			if(rx_buffer_index >= RX_BUFFER_SIZE){
 800049e:	781a      	ldrb	r2, [r3, #0]
 80004a0:	2a0f      	cmp	r2, #15
 80004a2:	d9c9      	bls.n	8000438 <HAL_UART_RxCpltCallback+0x1c>
 80004a4:	e7f0      	b.n	8000488 <HAL_UART_RxCpltCallback+0x6c>
 80004a6:	46c0      	nop			@ (mov r8, r8)
 80004a8:	40004400 	.word	0x40004400
 80004ac:	200000b6 	.word	0x200000b6
 80004b0:	200000a5 	.word	0x200000a5
 80004b4:	200000a6 	.word	0x200000a6
 80004b8:	200000b8 	.word	0x200000b8
 80004bc:	20000095 	.word	0x20000095
 80004c0:	20000094 	.word	0x20000094

080004c4 <adc_init>:

// Minimal ADC1 initialization for STM32C0 series
void adc_init(void)
{
    RCC->APBENR2 |= RCC_APBENR2_ADCEN;  // enable ADC clock
 80004c4:	2380      	movs	r3, #128	@ 0x80
 80004c6:	4a08      	ldr	r2, [pc, #32]	@ (80004e8 <adc_init+0x24>)
 80004c8:	035b      	lsls	r3, r3, #13
 80004ca:	6c11      	ldr	r1, [r2, #64]	@ 0x40
 80004cc:	430b      	orrs	r3, r1
 80004ce:	6413      	str	r3, [r2, #64]	@ 0x40
    ADC1->CR &= ~ADC_CR_ADEN;           // ensure ADC is off
 80004d0:	2201      	movs	r2, #1
 80004d2:	4b06      	ldr	r3, [pc, #24]	@ (80004ec <adc_init+0x28>)
 80004d4:	6899      	ldr	r1, [r3, #8]
 80004d6:	4391      	bics	r1, r2
 80004d8:	6099      	str	r1, [r3, #8]
    ADC1->CFGR1 = 0;                    // single conversion, right-aligned
 80004da:	2100      	movs	r1, #0
 80004dc:	60d9      	str	r1, [r3, #12]
    ADC1->CHSELR = 0;                   // no channel selected yet
 80004de:	6299      	str	r1, [r3, #40]	@ 0x28
    ADC1->CR |= ADC_CR_ADEN;            // enable ADC
 80004e0:	6899      	ldr	r1, [r3, #8]
 80004e2:	430a      	orrs	r2, r1
 80004e4:	609a      	str	r2, [r3, #8]
}
 80004e6:	4770      	bx	lr
 80004e8:	40021000 	.word	0x40021000
 80004ec:	40012400 	.word	0x40012400

080004f0 <read_adc_channel>:

// --- Read ADC channel without HAL ADC_ConfigChannel overhead ---
uint16_t read_adc_channel(uint32_t channel)
{
    ADC1->CHSELR = 1U << channel;       // select PA12 = channel 4
 80004f0:	2201      	movs	r2, #1
 80004f2:	4082      	lsls	r2, r0
    ADC1->CR |= ADC_CR_ADSTART;          // start conversion
 80004f4:	2104      	movs	r1, #4
    ADC1->CHSELR = 1U << channel;       // select PA12 = channel 4
 80004f6:	4b05      	ldr	r3, [pc, #20]	@ (800050c <read_adc_channel+0x1c>)
 80004f8:	629a      	str	r2, [r3, #40]	@ 0x28
    ADC1->CR |= ADC_CR_ADSTART;          // start conversion
 80004fa:	689a      	ldr	r2, [r3, #8]
 80004fc:	430a      	orrs	r2, r1
 80004fe:	609a      	str	r2, [r3, #8]
    while (!(ADC1->ISR & ADC_ISR_EOC)); // wait for conversion complete
 8000500:	681a      	ldr	r2, [r3, #0]
 8000502:	420a      	tst	r2, r1
 8000504:	d0fc      	beq.n	8000500 <read_adc_channel+0x10>
    return ADC1->DR;                     // read result
 8000506:	6c18      	ldr	r0, [r3, #64]	@ 0x40
 8000508:	b280      	uxth	r0, r0
}
 800050a:	4770      	bx	lr
 800050c:	40012400 	.word	0x40012400

08000510 <parse_two_digit_decimal>:

uint8_t parse_two_digit_decimal(char high, char low) {
    if (high < '0' || high > '9' || low < '0' || low > '9')
 8000510:	3830      	subs	r0, #48	@ 0x30
 8000512:	b2c3      	uxtb	r3, r0
        return 0; // invalid
 8000514:	2000      	movs	r0, #0
    if (high < '0' || high > '9' || low < '0' || low > '9')
 8000516:	2b09      	cmp	r3, #9
 8000518:	d807      	bhi.n	800052a <parse_two_digit_decimal+0x1a>
 800051a:	3930      	subs	r1, #48	@ 0x30
 800051c:	b2c9      	uxtb	r1, r1
 800051e:	2909      	cmp	r1, #9
 8000520:	d803      	bhi.n	800052a <parse_two_digit_decimal+0x1a>

    return (high - '0') * 10 + (low - '0');
 8000522:	220a      	movs	r2, #10
 8000524:	4353      	muls	r3, r2
 8000526:	18c9      	adds	r1, r1, r3
 8000528:	b2c8      	uxtb	r0, r1
}
 800052a:	4770      	bx	lr

0800052c <save_persistent_data>:

HAL_StatusTypeDef save_persistent_data(void) {
 800052c:	b530      	push	{r4, r5, lr}
    HAL_StatusTypeDef status;
    FLASH_EraseInitTypeDef EraseInitStruct;
    uint32_t PageError = 0;
 800052e:	2500      	movs	r5, #0
HAL_StatusTypeDef save_persistent_data(void) {
 8000530:	b085      	sub	sp, #20
    uint32_t PageError = 0;
 8000532:	9500      	str	r5, [sp, #0]

    HAL_FLASH_Unlock();
 8000534:	f000 fd7a 	bl	800102c <HAL_FLASH_Unlock>

    // Configure erase for STM32C0 (2 KB pages)
    EraseInitStruct.TypeErase = FLASH_TYPEERASE_PAGES;
 8000538:	2302      	movs	r3, #2
 800053a:	9301      	str	r3, [sp, #4]
    EraseInitStruct.Page = (FLASH_PERSIST_ADDR - FLASH_BASE) / FLASH_PAGE_SIZE;
 800053c:	330d      	adds	r3, #13
 800053e:	9302      	str	r3, [sp, #8]
    EraseInitStruct.NbPages = 1;

    status = HAL_FLASHEx_Erase(&EraseInitStruct, &PageError);
 8000540:	4669      	mov	r1, sp
    EraseInitStruct.NbPages = 1;
 8000542:	3b0e      	subs	r3, #14
    status = HAL_FLASHEx_Erase(&EraseInitStruct, &PageError);
 8000544:	a801      	add	r0, sp, #4
    EraseInitStruct.NbPages = 1;
 8000546:	9303      	str	r3, [sp, #12]
    status = HAL_FLASHEx_Erase(&EraseInitStruct, &PageError);
 8000548:	f000 fe00 	bl	800114c <HAL_FLASHEx_Erase>
 800054c:	0004      	movs	r4, r0
    if (status != HAL_OK) {
 800054e:	42a8      	cmp	r0, r5
 8000550:	d004      	beq.n	800055c <save_persistent_data+0x30>
            return status;
        }
        addr += 8; // must increment by 8 for double word
    }

    HAL_FLASH_Lock();
 8000552:	f000 fd7d 	bl	8001050 <HAL_FLASH_Lock>
    return HAL_OK;
}
 8000556:	0020      	movs	r0, r4
 8000558:	b005      	add	sp, #20
 800055a:	bd30      	pop	{r4, r5, pc}
        status = HAL_FLASH_Program(FLASH_TYPEPROGRAM_DOUBLEWORD, addr, data_ptr[i]);
 800055c:	4b07      	ldr	r3, [pc, #28]	@ (800057c <save_persistent_data+0x50>)
 800055e:	4908      	ldr	r1, [pc, #32]	@ (8000580 <save_persistent_data+0x54>)
 8000560:	18eb      	adds	r3, r5, r3
 8000562:	2001      	movs	r0, #1
 8000564:	681a      	ldr	r2, [r3, #0]
 8000566:	685b      	ldr	r3, [r3, #4]
 8000568:	1869      	adds	r1, r5, r1
 800056a:	f000 fdad 	bl	80010c8 <HAL_FLASH_Program>
 800056e:	1e04      	subs	r4, r0, #0
        if (status != HAL_OK) {
 8000570:	d1ef      	bne.n	8000552 <save_persistent_data+0x26>
    for (uint32_t i = 0; i < doublewords; i++) {
 8000572:	3508      	adds	r5, #8
 8000574:	2d18      	cmp	r5, #24
 8000576:	d1f1      	bne.n	800055c <save_persistent_data+0x30>
 8000578:	e7eb      	b.n	8000552 <save_persistent_data+0x26>
 800057a:	46c0      	nop			@ (mov r8, r8)
 800057c:	20000010 	.word	0x20000010
 8000580:	08007800 	.word	0x08007800

08000584 <load_persistent_data>:


void load_persistent_data(void) {
    PersistentConfig *flash_data = (PersistentConfig *)FLASH_PERSIST_ADDR;

    if (flash_data->magic == MAGIC_VALUE) {
 8000584:	4b0c      	ldr	r3, [pc, #48]	@ (80005b8 <load_persistent_data+0x34>)
 8000586:	490d      	ldr	r1, [pc, #52]	@ (80005bc <load_persistent_data+0x38>)
 8000588:	6818      	ldr	r0, [r3, #0]
void load_persistent_data(void) {
 800058a:	b570      	push	{r4, r5, r6, lr}
 800058c:	4a0c      	ldr	r2, [pc, #48]	@ (80005c0 <load_persistent_data+0x3c>)
    if (flash_data->magic == MAGIC_VALUE) {
 800058e:	4288      	cmp	r0, r1
 8000590:	d105      	bne.n	800059e <load_persistent_data+0x1a>
        // Flash has valid data
        memcpy(&config, flash_data, sizeof(PersistentConfig));
 8000592:	cb31      	ldmia	r3!, {r0, r4, r5}
 8000594:	c231      	stmia	r2!, {r0, r4, r5}
 8000596:	0011      	movs	r1, r2
 8000598:	cb05      	ldmia	r3!, {r0, r2}
 800059a:	c105      	stmia	r1!, {r0, r2}
    	config.errorTolChange = 1;

        // Save to flash so next boot reads these values
        save_persistent_data();
    }
}
 800059c:	bd70      	pop	{r4, r5, r6, pc}
    	config.address = 99;
 800059e:	4b09      	ldr	r3, [pc, #36]	@ (80005c4 <load_persistent_data+0x40>)
    	config.magic = MAGIC_VALUE;
 80005a0:	6011      	str	r1, [r2, #0]
    	config.address = 99;
 80005a2:	6053      	str	r3, [r2, #4]
    	config.angleClose = 2048;
 80005a4:	23c2      	movs	r3, #194	@ 0xc2
 80005a6:	029b      	lsls	r3, r3, #10
 80005a8:	6093      	str	r3, [r2, #8]
    	config.Kd = 1000;
 80005aa:	4b07      	ldr	r3, [pc, #28]	@ (80005c8 <load_persistent_data+0x44>)
 80005ac:	60d3      	str	r3, [r2, #12]
    	config.errorTolChange = 1;
 80005ae:	2301      	movs	r3, #1
 80005b0:	8213      	strh	r3, [r2, #16]
        save_persistent_data();
 80005b2:	f7ff ffbb 	bl	800052c <save_persistent_data>
}
 80005b6:	e7f1      	b.n	800059c <load_persistent_data+0x18>
 80005b8:	08007800 	.word	0x08007800
 80005bc:	deadbeef 	.word	0xdeadbeef
 80005c0:	20000010 	.word	0x20000010
 80005c4:	04000063 	.word	0x04000063
 80005c8:	000503e8 	.word	0x000503e8

080005cc <update_config_if_changed>:
    return 1; // success
}

// Updates a config value and only saves to flash if changed
HAL_StatusTypeDef update_config_if_changed(uint16_t *field, uint16_t new_value) {
    if (*field != new_value) {
 80005cc:	8802      	ldrh	r2, [r0, #0]
HAL_StatusTypeDef update_config_if_changed(uint16_t *field, uint16_t new_value) {
 80005ce:	0003      	movs	r3, r0
 80005d0:	b510      	push	{r4, lr}
        *field = new_value;
        return save_persistent_data();
    }
    return HAL_OK; // no change, no flash write
 80005d2:	2000      	movs	r0, #0
    if (*field != new_value) {
 80005d4:	428a      	cmp	r2, r1
 80005d6:	d002      	beq.n	80005de <update_config_if_changed+0x12>
        *field = new_value;
 80005d8:	8019      	strh	r1, [r3, #0]
        return save_persistent_data();
 80005da:	f7ff ffa7 	bl	800052c <save_persistent_data>
}
 80005de:	bd10      	pop	{r4, pc}

080005e0 <validate_command>:

uint8_t validate_command(uint8_t *buf, uint8_t command_int) {
 80005e0:	b570      	push	{r4, r5, r6, lr}
    // Ensure start '{' and minimal length
    if(buf[0] != '{') return 0;
 80005e2:	7803      	ldrb	r3, [r0, #0]
uint8_t validate_command(uint8_t *buf, uint8_t command_int) {
 80005e4:	0004      	movs	r4, r0
 80005e6:	000d      	movs	r5, r1
    if(buf[0] != '{') return 0;
 80005e8:	2600      	movs	r6, #0
 80005ea:	2b7b      	cmp	r3, #123	@ 0x7b
 80005ec:	d11d      	bne.n	800062a <validate_command+0x4a>

    // Validate address: 2 digits
    if(!IS_DIGIT(buf[1]) || !IS_DIGIT(buf[2])) return 0;
 80005ee:	7840      	ldrb	r0, [r0, #1]
 80005f0:	0003      	movs	r3, r0
 80005f2:	3b30      	subs	r3, #48	@ 0x30
 80005f4:	2b09      	cmp	r3, #9
 80005f6:	d818      	bhi.n	800062a <validate_command+0x4a>
 80005f8:	78a1      	ldrb	r1, [r4, #2]
 80005fa:	000b      	movs	r3, r1
 80005fc:	3b30      	subs	r3, #48	@ 0x30
 80005fe:	2b09      	cmp	r3, #9
 8000600:	d813      	bhi.n	800062a <validate_command+0x4a>

    uint8_t addr = parse_two_digit_decimal(buf[1], buf[2]);
 8000602:	f7ff ff85 	bl	8000510 <parse_two_digit_decimal>
    if(addr != config.address) return 0; // Not for this device
 8000606:	4b0b      	ldr	r3, [pc, #44]	@ (8000634 <validate_command+0x54>)
 8000608:	889b      	ldrh	r3, [r3, #4]
 800060a:	4283      	cmp	r3, r0
 800060c:	d10d      	bne.n	800062a <validate_command+0x4a>

    // For commands 21-28, ensure 4-digit value exists
    if(command_int >= 21 && command_int <= 28) {
 800060e:	3d15      	subs	r5, #21
        for(int i=7; i<=10; i++) {
            if(!IS_DIGIT(buf[i])) return 0;
        }
    }

    return 1; // valid
 8000610:	3601      	adds	r6, #1
    if(command_int >= 21 && command_int <= 28) {
 8000612:	2d07      	cmp	r5, #7
 8000614:	d809      	bhi.n	800062a <validate_command+0x4a>
 8000616:	1de3      	adds	r3, r4, #7
 8000618:	340b      	adds	r4, #11
            if(!IS_DIGIT(buf[i])) return 0;
 800061a:	781a      	ldrb	r2, [r3, #0]
 800061c:	3a30      	subs	r2, #48	@ 0x30
 800061e:	2a09      	cmp	r2, #9
 8000620:	d805      	bhi.n	800062e <validate_command+0x4e>
        for(int i=7; i<=10; i++) {
 8000622:	3301      	adds	r3, #1
 8000624:	42a3      	cmp	r3, r4
 8000626:	d1f8      	bne.n	800061a <validate_command+0x3a>
    return 1; // valid
 8000628:	2601      	movs	r6, #1
}
 800062a:	0030      	movs	r0, r6
 800062c:	bd70      	pop	{r4, r5, r6, pc}
    if(buf[0] != '{') return 0;
 800062e:	2600      	movs	r6, #0
 8000630:	e7fb      	b.n	800062a <validate_command+0x4a>
 8000632:	46c0      	nop			@ (mov r8, r8)
 8000634:	20000010 	.word	0x20000010

08000638 <SystemClock_Config>:
/**
  * @brief System Clock Configuration
  * @retval None
  */
void SystemClock_Config(void)
{
 8000638:	b510      	push	{r4, lr}
  RCC_OscInitTypeDef RCC_OscInitStruct = {0};
  RCC_ClkInitTypeDef RCC_ClkInitStruct = {0};

  __HAL_FLASH_SET_LATENCY(FLASH_LATENCY_0);
 800063a:	2407      	movs	r4, #7
{
 800063c:	b08c      	sub	sp, #48	@ 0x30
  RCC_OscInitTypeDef RCC_OscInitStruct = {0};
 800063e:	2218      	movs	r2, #24
 8000640:	2100      	movs	r1, #0
 8000642:	a806      	add	r0, sp, #24
 8000644:	f002 faa0 	bl	8002b88 <memset>
  RCC_ClkInitTypeDef RCC_ClkInitStruct = {0};
 8000648:	2100      	movs	r1, #0
 800064a:	2214      	movs	r2, #20
 800064c:	4668      	mov	r0, sp
 800064e:	f002 fa9b 	bl	8002b88 <memset>
  __HAL_FLASH_SET_LATENCY(FLASH_LATENCY_0);
 8000652:	4a11      	ldr	r2, [pc, #68]	@ (8000698 <SystemClock_Config+0x60>)
  */
  RCC_OscInitStruct.OscillatorType = RCC_OSCILLATORTYPE_HSI;
  RCC_OscInitStruct.HSIState = RCC_HSI_ON;
  RCC_OscInitStruct.HSIDiv = RCC_HSI_DIV4;
  RCC_OscInitStruct.HSICalibrationValue = RCC_HSICALIBRATION_DEFAULT;
  if (HAL_RCC_OscConfig(&RCC_OscInitStruct) != HAL_OK)
 8000654:	a805      	add	r0, sp, #20
  __HAL_FLASH_SET_LATENCY(FLASH_LATENCY_0);
 8000656:	6813      	ldr	r3, [r2, #0]
 8000658:	43a3      	bics	r3, r4
 800065a:	6013      	str	r3, [r2, #0]
  RCC_OscInitStruct.OscillatorType = RCC_OSCILLATORTYPE_HSI;
 800065c:	2302      	movs	r3, #2
 800065e:	9305      	str	r3, [sp, #20]
  RCC_OscInitStruct.HSIState = RCC_HSI_ON;
 8000660:	33fe      	adds	r3, #254	@ 0xfe
 8000662:	9308      	str	r3, [sp, #32]
  RCC_OscInitStruct.HSIDiv = RCC_HSI_DIV4;
 8000664:	2380      	movs	r3, #128	@ 0x80
 8000666:	015b      	lsls	r3, r3, #5
 8000668:	9309      	str	r3, [sp, #36]	@ 0x24
  RCC_OscInitStruct.HSICalibrationValue = RCC_HSICALIBRATION_DEFAULT;
 800066a:	2340      	movs	r3, #64	@ 0x40
 800066c:	930a      	str	r3, [sp, #40]	@ 0x28
  if (HAL_RCC_OscConfig(&RCC_OscInitStruct) != HAL_OK)
 800066e:	f000 fe6f 	bl	8001350 <HAL_RCC_OscConfig>
 8000672:	1e01      	subs	r1, r0, #0
 8000674:	d001      	beq.n	800067a <SystemClock_Config+0x42>
  \details Disables IRQ interrupts by setting special-purpose register PRIMASK.
           Can only be executed in Privileged modes.
 */
__STATIC_FORCEINLINE void __disable_irq(void)
{
  __ASM volatile ("cpsid i" : : : "memory");
 8000676:	b672      	cpsid	i
void Error_Handler(void)
{
  /* USER CODE BEGIN Error_Handler_Debug */
  /* User can add his own implementation to report the HAL error return state */
  __disable_irq();
  while (1)
 8000678:	e7fe      	b.n	8000678 <SystemClock_Config+0x40>
  RCC_ClkInitStruct.SYSCLKSource = RCC_SYSCLKSOURCE_HSI;
 800067a:	9001      	str	r0, [sp, #4]
  RCC_ClkInitStruct.SYSCLKDivider = RCC_SYSCLK_DIV1;
 800067c:	9002      	str	r0, [sp, #8]
  RCC_ClkInitStruct.AHBCLKDivider = RCC_HCLK_DIV1;
 800067e:	9003      	str	r0, [sp, #12]
  RCC_ClkInitStruct.APB1CLKDivider = RCC_APB1_DIV1;
 8000680:	9004      	str	r0, [sp, #16]
  if (HAL_RCC_ClockConfig(&RCC_ClkInitStruct, FLASH_LATENCY_0) != HAL_OK)
 8000682:	4668      	mov	r0, sp
  RCC_ClkInitStruct.ClockType = RCC_CLOCKTYPE_HCLK|RCC_CLOCKTYPE_SYSCLK
 8000684:	9400      	str	r4, [sp, #0]
  if (HAL_RCC_ClockConfig(&RCC_ClkInitStruct, FLASH_LATENCY_0) != HAL_OK)
 8000686:	f000 ffbf 	bl	8001608 <HAL_RCC_ClockConfig>
 800068a:	2800      	cmp	r0, #0
 800068c:	d001      	beq.n	8000692 <SystemClock_Config+0x5a>
 800068e:	b672      	cpsid	i
  while (1)
 8000690:	e7fe      	b.n	8000690 <SystemClock_Config+0x58>
}
 8000692:	b00c      	add	sp, #48	@ 0x30
 8000694:	bd10      	pop	{r4, pc}
 8000696:	46c0      	nop			@ (mov r8, r8)
 8000698:	40022000 	.word	0x40022000

0800069c <main>:
{
 800069c:	b5f0      	push	{r4, r5, r6, r7, lr}
  __HAL_RCC_GPIOA_CLK_ENABLE();
 800069e:	2701      	movs	r7, #1
{
 80006a0:	b095      	sub	sp, #84	@ 0x54
  HAL_Init();
 80006a2:	f000 fc55 	bl	8000f50 <HAL_Init>
  SystemClock_Config();
 80006a6:	f7ff ffc7 	bl	8000638 <SystemClock_Config>
  GPIO_InitTypeDef GPIO_InitStruct = {0};
 80006aa:	2214      	movs	r2, #20
 80006ac:	2100      	movs	r1, #0
 80006ae:	a80d      	add	r0, sp, #52	@ 0x34
 80006b0:	f002 fa6a 	bl	8002b88 <memset>
  __HAL_RCC_GPIOC_CLK_ENABLE();
 80006b4:	2104      	movs	r1, #4
  __HAL_RCC_GPIOA_CLK_ENABLE();
 80006b6:	4bc7      	ldr	r3, [pc, #796]	@ (80009d4 <main+0x338>)
  HAL_GPIO_WritePin(GPIOA, GPIO_PIN_7|GPIO_PIN_8|GPIO_PIN_11, GPIO_PIN_RESET);
 80006b8:	20a0      	movs	r0, #160	@ 0xa0
  __HAL_RCC_GPIOA_CLK_ENABLE();
 80006ba:	6b5a      	ldr	r2, [r3, #52]	@ 0x34
  HAL_GPIO_WritePin(GPIOA, GPIO_PIN_7|GPIO_PIN_8|GPIO_PIN_11, GPIO_PIN_RESET);
 80006bc:	05c0      	lsls	r0, r0, #23
  __HAL_RCC_GPIOA_CLK_ENABLE();
 80006be:	433a      	orrs	r2, r7
 80006c0:	635a      	str	r2, [r3, #52]	@ 0x34
 80006c2:	6b5a      	ldr	r2, [r3, #52]	@ 0x34
  GPIO_InitStruct.Pull = GPIO_NOPULL;
 80006c4:	2500      	movs	r5, #0
  __HAL_RCC_GPIOA_CLK_ENABLE();
 80006c6:	403a      	ands	r2, r7
 80006c8:	9204      	str	r2, [sp, #16]
 80006ca:	9a04      	ldr	r2, [sp, #16]
  __HAL_RCC_GPIOC_CLK_ENABLE();
 80006cc:	6b5a      	ldr	r2, [r3, #52]	@ 0x34
  GPIO_InitStruct.Speed = GPIO_SPEED_FREQ_VERY_HIGH;
 80006ce:	2403      	movs	r4, #3
  __HAL_RCC_GPIOC_CLK_ENABLE();
 80006d0:	430a      	orrs	r2, r1
 80006d2:	635a      	str	r2, [r3, #52]	@ 0x34
 80006d4:	6b5b      	ldr	r3, [r3, #52]	@ 0x34
  HAL_GPIO_WritePin(GPIOA, GPIO_PIN_7|GPIO_PIN_8|GPIO_PIN_11, GPIO_PIN_RESET);
 80006d6:	2200      	movs	r2, #0
  __HAL_RCC_GPIOC_CLK_ENABLE();
 80006d8:	400b      	ands	r3, r1
  HAL_GPIO_WritePin(GPIOA, GPIO_PIN_7|GPIO_PIN_8|GPIO_PIN_11, GPIO_PIN_RESET);
 80006da:	2198      	movs	r1, #152	@ 0x98
  __HAL_RCC_GPIOC_CLK_ENABLE();
 80006dc:	9305      	str	r3, [sp, #20]
  HAL_GPIO_WritePin(GPIOA, GPIO_PIN_7|GPIO_PIN_8|GPIO_PIN_11, GPIO_PIN_RESET);
 80006de:	0109      	lsls	r1, r1, #4
  __HAL_RCC_GPIOC_CLK_ENABLE();
 80006e0:	9b05      	ldr	r3, [sp, #20]
  HAL_GPIO_WritePin(GPIOA, GPIO_PIN_7|GPIO_PIN_8|GPIO_PIN_11, GPIO_PIN_RESET);
 80006e2:	f000 fe2f 	bl	8001344 <HAL_GPIO_WritePin>
  HAL_GPIO_Init(GPIOA, &GPIO_InitStruct);
 80006e6:	20a0      	movs	r0, #160	@ 0xa0
  GPIO_InitStruct.Pin = GPIO_PIN_7;
 80006e8:	2380      	movs	r3, #128	@ 0x80
  HAL_GPIO_Init(GPIOA, &GPIO_InitStruct);
 80006ea:	a90d      	add	r1, sp, #52	@ 0x34
 80006ec:	05c0      	lsls	r0, r0, #23
  GPIO_InitStruct.Pin = GPIO_PIN_7;
 80006ee:	930d      	str	r3, [sp, #52]	@ 0x34
  GPIO_InitStruct.Speed = GPIO_SPEED_FREQ_VERY_HIGH;
 80006f0:	9410      	str	r4, [sp, #64]	@ 0x40
  GPIO_InitStruct.Mode = GPIO_MODE_OUTPUT_PP;
 80006f2:	970e      	str	r7, [sp, #56]	@ 0x38
  GPIO_InitStruct.Pull = GPIO_NOPULL;
 80006f4:	950f      	str	r5, [sp, #60]	@ 0x3c
  HAL_GPIO_Init(GPIOA, &GPIO_InitStruct);
 80006f6:	f000 fd71 	bl	80011dc <HAL_GPIO_Init>
  GPIO_InitStruct.Pin = GPIO_PIN_8|GPIO_PIN_11;
 80006fa:	2390      	movs	r3, #144	@ 0x90
  HAL_GPIO_Init(GPIOA, &GPIO_InitStruct);
 80006fc:	20a0      	movs	r0, #160	@ 0xa0
  GPIO_InitStruct.Pin = GPIO_PIN_8|GPIO_PIN_11;
 80006fe:	011b      	lsls	r3, r3, #4
  HAL_GPIO_Init(GPIOA, &GPIO_InitStruct);
 8000700:	a90d      	add	r1, sp, #52	@ 0x34
 8000702:	05c0      	lsls	r0, r0, #23
  GPIO_InitStruct.Pin = GPIO_PIN_8|GPIO_PIN_11;
 8000704:	930d      	str	r3, [sp, #52]	@ 0x34
  GPIO_InitStruct.Pin = GPIO_PIN_12;
 8000706:	2680      	movs	r6, #128	@ 0x80
  GPIO_InitStruct.Mode = GPIO_MODE_OUTPUT_PP;
 8000708:	970e      	str	r7, [sp, #56]	@ 0x38
  GPIO_InitStruct.Pull = GPIO_NOPULL;
 800070a:	950f      	str	r5, [sp, #60]	@ 0x3c
  GPIO_InitStruct.Speed = GPIO_SPEED_FREQ_LOW;
 800070c:	9510      	str	r5, [sp, #64]	@ 0x40
  HAL_GPIO_Init(GPIOA, &GPIO_InitStruct);
 800070e:	f000 fd65 	bl	80011dc <HAL_GPIO_Init>
  HAL_GPIO_Init(GPIOA, &GPIO_InitStruct);
 8000712:	20a0      	movs	r0, #160	@ 0xa0
 8000714:	a90d      	add	r1, sp, #52	@ 0x34
 8000716:	05c0      	lsls	r0, r0, #23
  GPIO_InitStruct.Pin = GPIO_PIN_12;
 8000718:	0176      	lsls	r6, r6, #5
  GPIO_InitStruct.Mode = GPIO_MODE_ANALOG;
 800071a:	940e      	str	r4, [sp, #56]	@ 0x38
  GPIO_InitStruct.Pin = GPIO_PIN_12;
 800071c:	960d      	str	r6, [sp, #52]	@ 0x34
  GPIO_InitStruct.Pull = GPIO_NOPULL;
 800071e:	950f      	str	r5, [sp, #60]	@ 0x3c
  HAL_GPIO_Init(GPIOA, &GPIO_InitStruct);
 8000720:	f000 fd5c 	bl	80011dc <HAL_GPIO_Init>
  TIM_ClockConfigTypeDef sClockSourceConfig = {0};
 8000724:	2210      	movs	r2, #16
 8000726:	0029      	movs	r1, r5
 8000728:	a809      	add	r0, sp, #36	@ 0x24
 800072a:	f002 fa2d 	bl	8002b88 <memset>
  TIM_MasterConfigTypeDef sMasterConfig = {0};
 800072e:	220c      	movs	r2, #12
 8000730:	0029      	movs	r1, r5
 8000732:	a806      	add	r0, sp, #24
 8000734:	f002 fa28 	bl	8002b88 <memset>
  TIM_OC_InitTypeDef sConfigOC = {0};
 8000738:	221c      	movs	r2, #28
 800073a:	0029      	movs	r1, r5
 800073c:	a80d      	add	r0, sp, #52	@ 0x34
 800073e:	f002 fa23 	bl	8002b88 <memset>
  htim3.Instance = TIM3;
 8000742:	4ca5      	ldr	r4, [pc, #660]	@ (80009d8 <main+0x33c>)
 8000744:	4ba5      	ldr	r3, [pc, #660]	@ (80009dc <main+0x340>)
  htim3.Init.Period = 999;
 8000746:	4aa6      	ldr	r2, [pc, #664]	@ (80009e0 <main+0x344>)
  htim3.Instance = TIM3;
 8000748:	6023      	str	r3, [r4, #0]
  htim3.Init.Prescaler = 79;
 800074a:	234f      	movs	r3, #79	@ 0x4f
  if (HAL_TIM_Base_Init(&htim3) != HAL_OK)
 800074c:	0020      	movs	r0, r4
  htim3.Init.Prescaler = 79;
 800074e:	6063      	str	r3, [r4, #4]
  htim3.Init.AutoReloadPreload = TIM_AUTORELOAD_PRELOAD_ENABLE;
 8000750:	3331      	adds	r3, #49	@ 0x31
  htim3.Init.CounterMode = TIM_COUNTERMODE_UP;
 8000752:	60a5      	str	r5, [r4, #8]
  htim3.Init.Period = 999;
 8000754:	60e2      	str	r2, [r4, #12]
  htim3.Init.ClockDivision = TIM_CLOCKDIVISION_DIV1;
 8000756:	6125      	str	r5, [r4, #16]
  htim3.Init.AutoReloadPreload = TIM_AUTORELOAD_PRELOAD_ENABLE;
 8000758:	61a3      	str	r3, [r4, #24]
  if (HAL_TIM_Base_Init(&htim3) != HAL_OK)
 800075a:	f001 f97d 	bl	8001a58 <HAL_TIM_Base_Init>
 800075e:	42a8      	cmp	r0, r5
 8000760:	d001      	beq.n	8000766 <main+0xca>
 8000762:	b672      	cpsid	i
  while (1)
 8000764:	e7fe      	b.n	8000764 <main+0xc8>
  if (HAL_TIM_ConfigClockSource(&htim3, &sClockSourceConfig) != HAL_OK)
 8000766:	0020      	movs	r0, r4
 8000768:	a909      	add	r1, sp, #36	@ 0x24
  sClockSourceConfig.ClockSource = TIM_CLOCKSOURCE_INTERNAL;
 800076a:	9609      	str	r6, [sp, #36]	@ 0x24
  if (HAL_TIM_ConfigClockSource(&htim3, &sClockSourceConfig) != HAL_OK)
 800076c:	f001 fa96 	bl	8001c9c <HAL_TIM_ConfigClockSource>
 8000770:	2800      	cmp	r0, #0
 8000772:	d001      	beq.n	8000778 <main+0xdc>
 8000774:	b672      	cpsid	i
  while (1)
 8000776:	e7fe      	b.n	8000776 <main+0xda>
  if (HAL_TIM_PWM_Init(&htim3) != HAL_OK)
 8000778:	0020      	movs	r0, r4
 800077a:	f001 f997 	bl	8001aac <HAL_TIM_PWM_Init>
 800077e:	2800      	cmp	r0, #0
 8000780:	d001      	beq.n	8000786 <main+0xea>
 8000782:	b672      	cpsid	i
  while (1)
 8000784:	e7fe      	b.n	8000784 <main+0xe8>
  sMasterConfig.MasterOutputTrigger = TIM_TRGO_RESET;
 8000786:	9006      	str	r0, [sp, #24]
  sMasterConfig.MasterSlaveMode = TIM_MASTERSLAVEMODE_DISABLE;
 8000788:	9008      	str	r0, [sp, #32]
  if (HAL_TIMEx_MasterConfigSynchronization(&htim3, &sMasterConfig) != HAL_OK)
 800078a:	a906      	add	r1, sp, #24
 800078c:	0020      	movs	r0, r4
 800078e:	f001 fba7 	bl	8001ee0 <HAL_TIMEx_MasterConfigSynchronization>
 8000792:	1e02      	subs	r2, r0, #0
 8000794:	d001      	beq.n	800079a <main+0xfe>
 8000796:	b672      	cpsid	i
  while (1)
 8000798:	e7fe      	b.n	8000798 <main+0xfc>
  sConfigOC.OCMode = TIM_OCMODE_PWM1;
 800079a:	2360      	movs	r3, #96	@ 0x60
  sConfigOC.Pulse = 0;
 800079c:	900e      	str	r0, [sp, #56]	@ 0x38
  sConfigOC.OCPolarity = TIM_OCPOLARITY_HIGH;
 800079e:	900f      	str	r0, [sp, #60]	@ 0x3c
  sConfigOC.OCFastMode = TIM_OCFAST_DISABLE;
 80007a0:	9011      	str	r0, [sp, #68]	@ 0x44
  if (HAL_TIM_PWM_ConfigChannel(&htim3, &sConfigOC, TIM_CHANNEL_1) != HAL_OK)
 80007a2:	a90d      	add	r1, sp, #52	@ 0x34
 80007a4:	0020      	movs	r0, r4
  sConfigOC.OCMode = TIM_OCMODE_PWM1;
 80007a6:	930d      	str	r3, [sp, #52]	@ 0x34
  if (HAL_TIM_PWM_ConfigChannel(&htim3, &sConfigOC, TIM_CHANNEL_1) != HAL_OK)
 80007a8:	f001 f9e6 	bl	8001b78 <HAL_TIM_PWM_ConfigChannel>
 80007ac:	1e05      	subs	r5, r0, #0
 80007ae:	d001      	beq.n	80007b4 <main+0x118>
 80007b0:	b672      	cpsid	i
  while (1)
 80007b2:	e7fe      	b.n	80007b2 <main+0x116>
  HAL_TIM_MspPostInit(&htim3);
 80007b4:	0020      	movs	r0, r4
 80007b6:	f000 fafd 	bl	8000db4 <HAL_TIM_MspPostInit>
  huart2.Instance = USART2;
 80007ba:	4e8a      	ldr	r6, [pc, #552]	@ (80009e4 <main+0x348>)
 80007bc:	4b8a      	ldr	r3, [pc, #552]	@ (80009e8 <main+0x34c>)
  if (HAL_RS485Ex_Init(&huart2, UART_DE_POLARITY_HIGH, 0, 0) != HAL_OK)
 80007be:	002a      	movs	r2, r5
  huart2.Instance = USART2;
 80007c0:	6033      	str	r3, [r6, #0]
  huart2.Init.BaudRate = 115200;
 80007c2:	23e1      	movs	r3, #225	@ 0xe1
 80007c4:	025b      	lsls	r3, r3, #9
 80007c6:	6073      	str	r3, [r6, #4]
  huart2.Init.Mode = UART_MODE_TX_RX;
 80007c8:	230c      	movs	r3, #12
  if (HAL_RS485Ex_Init(&huart2, UART_DE_POLARITY_HIGH, 0, 0) != HAL_OK)
 80007ca:	0029      	movs	r1, r5
  huart2.Init.Mode = UART_MODE_TX_RX;
 80007cc:	6173      	str	r3, [r6, #20]
  if (HAL_RS485Ex_Init(&huart2, UART_DE_POLARITY_HIGH, 0, 0) != HAL_OK)
 80007ce:	0030      	movs	r0, r6
 80007d0:	002b      	movs	r3, r5
  huart2.Init.WordLength = UART_WORDLENGTH_8B;
 80007d2:	60b5      	str	r5, [r6, #8]
  huart2.Init.StopBits = UART_STOPBITS_1;
 80007d4:	60f5      	str	r5, [r6, #12]
  huart2.Init.Parity = UART_PARITY_NONE;
 80007d6:	6135      	str	r5, [r6, #16]
  huart2.Init.HwFlowCtl = UART_HWCONTROL_NONE;
 80007d8:	61b5      	str	r5, [r6, #24]
  huart2.Init.OverSampling = UART_OVERSAMPLING_16;
 80007da:	61f5      	str	r5, [r6, #28]
  huart2.Init.OneBitSampling = UART_ONE_BIT_SAMPLE_DISABLE;
 80007dc:	6235      	str	r5, [r6, #32]
  huart2.Init.ClockPrescaler = UART_PRESCALER_DIV1;
 80007de:	6275      	str	r5, [r6, #36]	@ 0x24
  huart2.AdvancedInit.AdvFeatureInit = UART_ADVFEATURE_NO_INIT;
 80007e0:	62b5      	str	r5, [r6, #40]	@ 0x28
  if (HAL_RS485Ex_Init(&huart2, UART_DE_POLARITY_HIGH, 0, 0) != HAL_OK)
 80007e2:	f002 f98b 	bl	8002afc <HAL_RS485Ex_Init>
 80007e6:	1e05      	subs	r5, r0, #0
 80007e8:	d001      	beq.n	80007ee <main+0x152>
 80007ea:	b672      	cpsid	i
  while (1)
 80007ec:	e7fe      	b.n	80007ec <main+0x150>
  HAL_NVIC_SetPriority(USART2_IRQn, 0, 0);
 80007ee:	0002      	movs	r2, r0
 80007f0:	0001      	movs	r1, r0
 80007f2:	201c      	movs	r0, #28
 80007f4:	f000 fbca 	bl	8000f8c <HAL_NVIC_SetPriority>
  HAL_NVIC_EnableIRQ(USART2_IRQn);
 80007f8:	201c      	movs	r0, #28
 80007fa:	f000 fbf1 	bl	8000fe0 <HAL_NVIC_EnableIRQ>
  load_persistent_data();
 80007fe:	f7ff fec1 	bl	8000584 <load_persistent_data>
  adc_init();
 8000802:	f7ff fe5f 	bl	80004c4 <adc_init>
  HAL_UART_Receive_IT(&huart2, &rx_byte, 1);
 8000806:	003a      	movs	r2, r7
 8000808:	4978      	ldr	r1, [pc, #480]	@ (80009ec <main+0x350>)
 800080a:	0030      	movs	r0, r6
 800080c:	f002 f948 	bl	8002aa0 <HAL_UART_Receive_IT>
  HAL_GPIO_WritePin(GPIOA, GPIO_PIN_6, GPIO_PIN_RESET);
 8000810:	20a0      	movs	r0, #160	@ 0xa0
 8000812:	002a      	movs	r2, r5
 8000814:	2140      	movs	r1, #64	@ 0x40
 8000816:	05c0      	lsls	r0, r0, #23
 8000818:	f000 fd94 	bl	8001344 <HAL_GPIO_WritePin>
  HAL_GPIO_WritePin(GPIOA, GPIO_PIN_7, GPIO_PIN_RESET);
 800081c:	20a0      	movs	r0, #160	@ 0xa0
 800081e:	002a      	movs	r2, r5
 8000820:	2180      	movs	r1, #128	@ 0x80
 8000822:	05c0      	lsls	r0, r0, #23
 8000824:	f000 fd8e 	bl	8001344 <HAL_GPIO_WritePin>
  HAL_TIM_PWM_Start(&htim3, TIM_CHANNEL_1);
 8000828:	0029      	movs	r1, r5
 800082a:	0020      	movs	r0, r4
 800082c:	f001 fb54 	bl	8001ed8 <HAL_TIM_PWM_Start>
  HAL_GPIO_WritePin(GPIOA, GPIO_PIN_8, GPIO_PIN_RESET);
 8000830:	2180      	movs	r1, #128	@ 0x80
 8000832:	20a0      	movs	r0, #160	@ 0xa0
  __HAL_TIM_SET_COMPARE(&htim3, TIM_CHANNEL_1, 999);
 8000834:	6823      	ldr	r3, [r4, #0]
 8000836:	4a6a      	ldr	r2, [pc, #424]	@ (80009e0 <main+0x344>)
  HAL_GPIO_WritePin(GPIOA, GPIO_PIN_8, GPIO_PIN_RESET);
 8000838:	0049      	lsls	r1, r1, #1
  __HAL_TIM_SET_COMPARE(&htim3, TIM_CHANNEL_1, 999);
 800083a:	635a      	str	r2, [r3, #52]	@ 0x34
  HAL_GPIO_WritePin(GPIOA, GPIO_PIN_8, GPIO_PIN_RESET);
 800083c:	05c0      	lsls	r0, r0, #23
 800083e:	002a      	movs	r2, r5
 8000840:	f000 fd80 	bl	8001344 <HAL_GPIO_WritePin>
  int16_t last_error = 0;
 8000844:	9501      	str	r5, [sp, #4]
  uint32_t last_print = 0;
 8000846:	9502      	str	r5, [sp, #8]
	  	      uint16_t adc_value = read_adc_channel(12);
 8000848:	200c      	movs	r0, #12
 800084a:	f7ff fe51 	bl	80004f0 <read_adc_channel>
	  	  if(command_int != 0){
 800084e:	4c68      	ldr	r4, [pc, #416]	@ (80009f0 <main+0x354>)
	  	      uint16_t adc_value = read_adc_channel(12);
 8000850:	9000      	str	r0, [sp, #0]
	  	  if(command_int != 0){
 8000852:	7823      	ldrb	r3, [r4, #0]
 8000854:	2b00      	cmp	r3, #0
 8000856:	d063      	beq.n	8000920 <main+0x284>
    uint8_t valid = validate_command(command_buffer, command_int);
 8000858:	7821      	ldrb	r1, [r4, #0]
 800085a:	4d66      	ldr	r5, [pc, #408]	@ (80009f4 <main+0x358>)
 800085c:	b2c9      	uxtb	r1, r1
 800085e:	0028      	movs	r0, r5
 8000860:	f7ff febe 	bl	80005e0 <validate_command>
    if(!valid){
 8000864:	2800      	cmp	r0, #0
 8000866:	d101      	bne.n	800086c <main+0x1d0>
        command_int = 0;
 8000868:	7020      	strb	r0, [r4, #0]
        continue;
 800086a:	e7ed      	b.n	8000848 <main+0x1ac>
    if(command_int >= 21 && command_int <= 28){
 800086c:	7823      	ldrb	r3, [r4, #0]
    uint16_t command_value = 0;
 800086e:	2100      	movs	r1, #0
    if(command_int >= 21 && command_int <= 28){
 8000870:	2b14      	cmp	r3, #20
 8000872:	d916      	bls.n	80008a2 <main+0x206>
 8000874:	7823      	ldrb	r3, [r4, #0]
 8000876:	2b1c      	cmp	r3, #28
 8000878:	d813      	bhi.n	80008a2 <main+0x206>
        command_value = (command_buffer[7]-'0')*1000 +
 800087a:	79e9      	ldrb	r1, [r5, #7]
                        (command_buffer[8]-'0')*100 +
 800087c:	7a28      	ldrb	r0, [r5, #8]
        command_value = (command_buffer[7]-'0')*1000 +
 800087e:	3930      	subs	r1, #48	@ 0x30
                        (command_buffer[9]-'0')*10 +
 8000880:	7a6b      	ldrb	r3, [r5, #9]
                        (command_buffer[10]-'0');
 8000882:	7aaa      	ldrb	r2, [r5, #10]
        command_value = (command_buffer[7]-'0')*1000 +
 8000884:	000d      	movs	r5, r1
 8000886:	21fa      	movs	r1, #250	@ 0xfa
 8000888:	0089      	lsls	r1, r1, #2
 800088a:	4369      	muls	r1, r5
 800088c:	3a30      	subs	r2, #48	@ 0x30
 800088e:	1889      	adds	r1, r1, r2
 8000890:	2264      	movs	r2, #100	@ 0x64
                        (command_buffer[8]-'0')*100 +
 8000892:	3830      	subs	r0, #48	@ 0x30
        command_value = (command_buffer[7]-'0')*1000 +
 8000894:	4342      	muls	r2, r0
 8000896:	1889      	adds	r1, r1, r2
                        (command_buffer[8]-'0')*100 +
 8000898:	220a      	movs	r2, #10
                        (command_buffer[9]-'0')*10 +
 800089a:	3b30      	subs	r3, #48	@ 0x30
                        (command_buffer[8]-'0')*100 +
 800089c:	4353      	muls	r3, r2
        command_value = (command_buffer[7]-'0')*1000 +
 800089e:	18c9      	adds	r1, r1, r3
 80008a0:	b289      	uxth	r1, r1
    switch(command_int){
 80008a2:	7820      	ldrb	r0, [r4, #0]
 80008a4:	3801      	subs	r0, #1
 80008a6:	2828      	cmp	r0, #40	@ 0x28
 80008a8:	d837      	bhi.n	800091a <main+0x27e>
 80008aa:	2400      	movs	r4, #0
 80008ac:	4b52      	ldr	r3, [pc, #328]	@ (80009f8 <main+0x35c>)
 80008ae:	4a53      	ldr	r2, [pc, #332]	@ (80009fc <main+0x360>)
 80008b0:	f7ff fc34 	bl	800011c <__gnu_thumb1_case_uhi>
 80008b4:	00750029 	.word	0x00750029
 80008b8:	00330033 	.word	0x00330033
 80008bc:	00330033 	.word	0x00330033
 80008c0:	00330033 	.word	0x00330033
 80008c4:	00330033 	.word	0x00330033
 80008c8:	00330033 	.word	0x00330033
 80008cc:	00330033 	.word	0x00330033
 80008d0:	00330033 	.word	0x00330033
 80008d4:	00330033 	.word	0x00330033
 80008d8:	00330033 	.word	0x00330033
 80008dc:	007b0077 	.word	0x007b0077
 80008e0:	007f007d 	.word	0x007f007d
 80008e4:	00830081 	.word	0x00830081
 80008e8:	00870085 	.word	0x00870085
 80008ec:	008d0089 	.word	0x008d0089
 80008f0:	010900c4 	.word	0x010900c4
 80008f4:	00330033 	.word	0x00330033
 80008f8:	00330033 	.word	0x00330033
 80008fc:	00330033 	.word	0x00330033
 8000900:	014e0033 	.word	0x014e0033
 8000904:	0150      	.short	0x0150
        case 1: targetAngle = config.angleOpen; target_hit = 0; last_move_command = HAL_GetTick(); break;
 8000906:	88da      	ldrh	r2, [r3, #6]
        case 2: targetAngle = config.angleClose; target_hit = 0; last_move_command = HAL_GetTick(); break;
 8000908:	4b3d      	ldr	r3, [pc, #244]	@ (8000a00 <main+0x364>)
 800090a:	801a      	strh	r2, [r3, #0]
 800090c:	2200      	movs	r2, #0
 800090e:	4b3d      	ldr	r3, [pc, #244]	@ (8000a04 <main+0x368>)
 8000910:	801a      	strh	r2, [r3, #0]
 8000912:	f000 fb35 	bl	8000f80 <HAL_GetTick>
 8000916:	4b3c      	ldr	r3, [pc, #240]	@ (8000a08 <main+0x36c>)
 8000918:	6018      	str	r0, [r3, #0]
    command_int = 0; // reset command
 800091a:	2200      	movs	r2, #0
 800091c:	4b34      	ldr	r3, [pc, #208]	@ (80009f0 <main+0x354>)
 800091e:	701a      	strb	r2, [r3, #0]
	      int16_t error = adc_value - targetAngle;
 8000920:	4b37      	ldr	r3, [pc, #220]	@ (8000a00 <main+0x364>)
 8000922:	881c      	ldrh	r4, [r3, #0]
 8000924:	9b00      	ldr	r3, [sp, #0]
 8000926:	1b1c      	subs	r4, r3, r4
	      uint32_t tick = HAL_GetTick();
 8000928:	f000 fb2a 	bl	8000f80 <HAL_GetTick>
	      if(tick - last_deriv_tick > 5){ // compute derivative every 5 ms
 800092c:	4e37      	ldr	r6, [pc, #220]	@ (8000a0c <main+0x370>)
	      uint32_t tick = HAL_GetTick();
 800092e:	0005      	movs	r5, r0
	      if(tick - last_deriv_tick > 5){ // compute derivative every 5 ms
 8000930:	6833      	ldr	r3, [r6, #0]
	      int16_t error = adc_value - targetAngle;
 8000932:	b224      	sxth	r4, r4
	      if(tick - last_deriv_tick > 5){ // compute derivative every 5 ms
 8000934:	1ac3      	subs	r3, r0, r3
 8000936:	2b05      	cmp	r3, #5
 8000938:	d910      	bls.n	800095c <main+0x2c0>
	          rolling_delta_error = (rolling_delta_error * (100 - alpha) + delta * alpha) / 100;
 800093a:	2164      	movs	r1, #100	@ 0x64
 800093c:	4b34      	ldr	r3, [pc, #208]	@ (8000a10 <main+0x374>)
 800093e:	4f35      	ldr	r7, [pc, #212]	@ (8000a14 <main+0x378>)
 8000940:	781b      	ldrb	r3, [r3, #0]
 8000942:	6838      	ldr	r0, [r7, #0]
 8000944:	b25b      	sxtb	r3, r3
 8000946:	1aca      	subs	r2, r1, r3
 8000948:	4350      	muls	r0, r2
	          int32_t delta = (int32_t)(error - last_error);
 800094a:	9a01      	ldr	r2, [sp, #4]
 800094c:	1aa2      	subs	r2, r4, r2
	          rolling_delta_error = (rolling_delta_error * (100 - alpha) + delta * alpha) / 100;
 800094e:	4353      	muls	r3, r2
 8000950:	18c0      	adds	r0, r0, r3
 8000952:	f7ff fc77 	bl	8000244 <__divsi3>
	          last_deriv_tick = tick;
 8000956:	6035      	str	r5, [r6, #0]
	          rolling_delta_error = (rolling_delta_error * (100 - alpha) + delta * alpha) / 100;
 8000958:	6038      	str	r0, [r7, #0]
	          last_error = error;
 800095a:	9401      	str	r4, [sp, #4]
	      if (target_hit == 0) {
 800095c:	4b29      	ldr	r3, [pc, #164]	@ (8000a04 <main+0x368>)
	    	  if (abs(error) > 1000){
 800095e:	17e2      	asrs	r2, r4, #31
	      if (target_hit == 0) {
 8000960:	881b      	ldrh	r3, [r3, #0]
	    	  if (abs(error) > 1000){
 8000962:	18a6      	adds	r6, r4, r2
 8000964:	4056      	eors	r6, r2
	      if (target_hit == 0) {
 8000966:	b218      	sxth	r0, r3
	    	  if (abs(error) > 1000){
 8000968:	b2b6      	uxth	r6, r6
	      if (target_hit == 0) {
 800096a:	2b00      	cmp	r3, #0
 800096c:	d000      	beq.n	8000970 <main+0x2d4>
 800096e:	e190      	b.n	8000c92 <main+0x5f6>
	    	  if (abs(error) > 1000){
 8000970:	21fa      	movs	r1, #250	@ 0xfa
 8000972:	0089      	lsls	r1, r1, #2
 8000974:	428e      	cmp	r6, r1
 8000976:	d800      	bhi.n	800097a <main+0x2de>
 8000978:	e0ef      	b.n	8000b5a <main+0x4be>
	    		  if (adc_value < targetAngle){
 800097a:	4b21      	ldr	r3, [pc, #132]	@ (8000a00 <main+0x364>)
 800097c:	9900      	ldr	r1, [sp, #0]
 800097e:	881a      	ldrh	r2, [r3, #0]
 8000980:	428a      	cmp	r2, r1
 8000982:	d900      	bls.n	8000986 <main+0x2ea>
 8000984:	e183      	b.n	8000c8e <main+0x5f2>
	    		  } else  if (adc_value > targetAngle){
 8000986:	881b      	ldrh	r3, [r3, #0]
 8000988:	428b      	cmp	r3, r1
 800098a:	d200      	bcs.n	800098e <main+0x2f2>
 800098c:	e0f7      	b.n	8000b7e <main+0x4e2>
	      } else if (speed > 999){
 800098e:	23fa      	movs	r3, #250	@ 0xfa
 8000990:	0004      	movs	r4, r0
 8000992:	009b      	lsls	r3, r3, #2
 8000994:	4298      	cmp	r0, r3
 8000996:	da00      	bge.n	800099a <main+0x2fe>
 8000998:	e102      	b.n	8000ba0 <main+0x504>
 800099a:	4c11      	ldr	r4, [pc, #68]	@ (80009e0 <main+0x344>)
 800099c:	e100      	b.n	8000ba0 <main+0x504>
        case 2: targetAngle = config.angleClose; target_hit = 0; last_move_command = HAL_GetTick(); break;
 800099e:	891a      	ldrh	r2, [r3, #8]
 80009a0:	e7b2      	b.n	8000908 <main+0x26c>
        case 21: update_config_if_changed(&config.angleOpen, command_value); break;
 80009a2:	481d      	ldr	r0, [pc, #116]	@ (8000a18 <main+0x37c>)
        case 22: update_config_if_changed(&config.angleClose, command_value); break;
 80009a4:	f7ff fe12 	bl	80005cc <update_config_if_changed>
 80009a8:	e7b7      	b.n	800091a <main+0x27e>
 80009aa:	481c      	ldr	r0, [pc, #112]	@ (8000a1c <main+0x380>)
 80009ac:	e7fa      	b.n	80009a4 <main+0x308>
        case 23: update_config_if_changed(&config.Kp, command_value); break;
 80009ae:	481c      	ldr	r0, [pc, #112]	@ (8000a20 <main+0x384>)
 80009b0:	e7f8      	b.n	80009a4 <main+0x308>
        case 24: update_config_if_changed(&config.Kd, command_value); break;
 80009b2:	481c      	ldr	r0, [pc, #112]	@ (8000a24 <main+0x388>)
 80009b4:	e7f6      	b.n	80009a4 <main+0x308>
        case 25: update_config_if_changed(&config.errorTol, command_value); break;
 80009b6:	481c      	ldr	r0, [pc, #112]	@ (8000a28 <main+0x38c>)
 80009b8:	e7f4      	b.n	80009a4 <main+0x308>
        case 26: update_config_if_changed(&config.errorTolChange, command_value); break;
 80009ba:	481c      	ldr	r0, [pc, #112]	@ (8000a2c <main+0x390>)
 80009bc:	e7f2      	b.n	80009a4 <main+0x308>
        case 27: update_config_if_changed(&config.extraVal, command_value); break;
 80009be:	481c      	ldr	r0, [pc, #112]	@ (8000a30 <main+0x394>)
 80009c0:	e7f0      	b.n	80009a4 <main+0x308>
        case 28: update_config_if_changed(&config.address, command_value); break;
 80009c2:	481c      	ldr	r0, [pc, #112]	@ (8000a34 <main+0x398>)
 80009c4:	e7ee      	b.n	80009a4 <main+0x308>
        case 29: debug = 1; break;
 80009c6:	2201      	movs	r2, #1
 80009c8:	4b1b      	ldr	r3, [pc, #108]	@ (8000a38 <main+0x39c>)
 80009ca:	701a      	strb	r2, [r3, #0]
 80009cc:	e7a5      	b.n	800091a <main+0x27e>
        case 30: debug = 0; break;
 80009ce:	4b1a      	ldr	r3, [pc, #104]	@ (8000a38 <main+0x39c>)
 80009d0:	701c      	strb	r4, [r3, #0]
 80009d2:	e7a2      	b.n	800091a <main+0x27e>
 80009d4:	40021000 	.word	0x40021000
 80009d8:	2000014c 	.word	0x2000014c
 80009dc:	40000400 	.word	0x40000400
 80009e0:	000003e7 	.word	0x000003e7
 80009e4:	200000b8 	.word	0x200000b8
 80009e8:	40004400 	.word	0x40004400
 80009ec:	200000b6 	.word	0x200000b6
 80009f0:	20000094 	.word	0x20000094
 80009f4:	20000095 	.word	0x20000095
 80009f8:	20000010 	.word	0x20000010
 80009fc:	20000008 	.word	0x20000008
 8000a00:	2000000c 	.word	0x2000000c
 8000a04:	2000000a 	.word	0x2000000a
 8000a08:	20000088 	.word	0x20000088
 8000a0c:	20000084 	.word	0x20000084
 8000a10:	20000009 	.word	0x20000009
 8000a14:	20000090 	.word	0x20000090
 8000a18:	20000016 	.word	0x20000016
 8000a1c:	20000018 	.word	0x20000018
 8000a20:	2000001a 	.word	0x2000001a
 8000a24:	2000001c 	.word	0x2000001c
 8000a28:	2000001e 	.word	0x2000001e
 8000a2c:	20000020 	.word	0x20000020
 8000a30:	20000022 	.word	0x20000022
 8000a34:	20000014 	.word	0x20000014
 8000a38:	2000008c 	.word	0x2000008c
            for(int i=0;i<8;i++){
 8000a3c:	2700      	movs	r7, #0
            uint16_t vals[] = { config.address, config.angleOpen, config.angleClose,
 8000a3e:	6859      	ldr	r1, [r3, #4]
 8000a40:	910d      	str	r1, [sp, #52]	@ 0x34
 8000a42:	6899      	ldr	r1, [r3, #8]
 8000a44:	910e      	str	r1, [sp, #56]	@ 0x38
 8000a46:	68d9      	ldr	r1, [r3, #12]
 8000a48:	691b      	ldr	r3, [r3, #16]
 8000a4a:	910f      	str	r1, [sp, #60]	@ 0x3c
 8000a4c:	9310      	str	r3, [sp, #64]	@ 0x40
 8000a4e:	7813      	ldrb	r3, [r2, #0]
                uint16_t val=vals[i];
 8000a50:	007b      	lsls	r3, r7, #1
 8000a52:	aa0d      	add	r2, sp, #52	@ 0x34
 8000a54:	5a9d      	ldrh	r5, [r3, r2]
                if(val==0) buf[pos++]='0';
 8000a56:	2d00      	cmp	r5, #0
 8000a58:	d11b      	bne.n	8000a92 <main+0x3f6>
 8000a5a:	2230      	movs	r2, #48	@ 0x30
 8000a5c:	2401      	movs	r4, #1
 8000a5e:	ab04      	add	r3, sp, #16
 8000a60:	751a      	strb	r2, [r3, #20]
                buf[pos++]=','; HAL_UART_Transmit(&huart2,(uint8_t*)buf,pos,HAL_MAX_DELAY);
 8000a62:	2114      	movs	r1, #20
 8000a64:	232c      	movs	r3, #44	@ 0x2c
 8000a66:	aa04      	add	r2, sp, #16
 8000a68:	1852      	adds	r2, r2, r1
 8000a6a:	4daa      	ldr	r5, [pc, #680]	@ (8000d14 <main+0x678>)
 8000a6c:	5513      	strb	r3, [r2, r4]
 8000a6e:	3401      	adds	r4, #1
 8000a70:	0028      	movs	r0, r5
 8000a72:	b2a2      	uxth	r2, r4
 8000a74:	3b2d      	subs	r3, #45	@ 0x2d
 8000a76:	a909      	add	r1, sp, #36	@ 0x24
            for(int i=0;i<8;i++){
 8000a78:	3701      	adds	r7, #1
                buf[pos++]=','; HAL_UART_Transmit(&huart2,(uint8_t*)buf,pos,HAL_MAX_DELAY);
 8000a7a:	f001 fea8 	bl	80027ce <HAL_UART_Transmit>
            for(int i=0;i<8;i++){
 8000a7e:	2f08      	cmp	r7, #8
 8000a80:	d1e6      	bne.n	8000a50 <main+0x3b4>
            HAL_UART_Transmit(&huart2,(uint8_t*)"\r\n",2,HAL_MAX_DELAY);
 8000a82:	2301      	movs	r3, #1
 8000a84:	2202      	movs	r2, #2
 8000a86:	0028      	movs	r0, r5
 8000a88:	49a3      	ldr	r1, [pc, #652]	@ (8000d18 <main+0x67c>)
 8000a8a:	425b      	negs	r3, r3
            HAL_UART_Transmit(&huart2, (uint8_t*)msg, len, 50);
 8000a8c:	f001 fe9f 	bl	80027ce <HAL_UART_Transmit>
            break;
 8000a90:	e743      	b.n	800091a <main+0x27e>
 8000a92:	2400      	movs	r4, #0
                    while(val>0){ temp[tpos++]= '0'+(val%10); val/=10; }
 8000a94:	ae06      	add	r6, sp, #24
 8000a96:	0028      	movs	r0, r5
 8000a98:	210a      	movs	r1, #10
 8000a9a:	f7ff fbcf 	bl	800023c <__aeabi_uidivmod>
 8000a9e:	3130      	adds	r1, #48	@ 0x30
 8000aa0:	55a1      	strb	r1, [r4, r6]
 8000aa2:	0028      	movs	r0, r5
 8000aa4:	210a      	movs	r1, #10
 8000aa6:	9503      	str	r5, [sp, #12]
 8000aa8:	f7ff fb42 	bl	8000130 <__udivsi3>
 8000aac:	9a03      	ldr	r2, [sp, #12]
 8000aae:	0023      	movs	r3, r4
 8000ab0:	b285      	uxth	r5, r0
 8000ab2:	3401      	adds	r4, #1
 8000ab4:	2a09      	cmp	r2, #9
 8000ab6:	d8ee      	bhi.n	8000a96 <main+0x3fa>
 8000ab8:	aa09      	add	r2, sp, #36	@ 0x24
                    for(int j=tpos-1;j>=0;j--) buf[pos++]=temp[j];
 8000aba:	5cf1      	ldrb	r1, [r6, r3]
 8000abc:	7011      	strb	r1, [r2, #0]
 8000abe:	3201      	adds	r2, #1
 8000ac0:	3b01      	subs	r3, #1
 8000ac2:	d2fa      	bcs.n	8000aba <main+0x41e>
 8000ac4:	e7cd      	b.n	8000a62 <main+0x3c6>
            int32_t range = (int32_t)config.angleOpen - (int32_t)config.angleClose;
 8000ac6:	8918      	ldrh	r0, [r3, #8]
 8000ac8:	88db      	ldrh	r3, [r3, #6]
            int32_t output_val = percent + 50;
 8000aca:	2532      	movs	r5, #50	@ 0x32
            int32_t range = (int32_t)config.angleOpen - (int32_t)config.angleClose;
 8000acc:	1a19      	subs	r1, r3, r0
            if (range != 0)
 8000ace:	4283      	cmp	r3, r0
 8000ad0:	d00c      	beq.n	8000aec <main+0x450>
            int32_t offset = (int32_t)adc_value - (int32_t)config.angleClose;
 8000ad2:	9b00      	ldr	r3, [sp, #0]
            if (output_val < 0) output_val = 0;
 8000ad4:	2500      	movs	r5, #0
            int32_t offset = (int32_t)adc_value - (int32_t)config.angleClose;
 8000ad6:	1a1b      	subs	r3, r3, r0
                percent = (offset * 100) / range;  // 0 = fully closed, 100 = fully open
 8000ad8:	2064      	movs	r0, #100	@ 0x64
 8000ada:	4358      	muls	r0, r3
 8000adc:	f7ff fbb2 	bl	8000244 <__divsi3>
            if (output_val < 0) output_val = 0;
 8000ae0:	3032      	adds	r0, #50	@ 0x32
 8000ae2:	d403      	bmi.n	8000aec <main+0x450>
            if (output_val > 200) output_val = 200;
 8000ae4:	0005      	movs	r5, r0
 8000ae6:	28c8      	cmp	r0, #200	@ 0xc8
 8000ae8:	dd00      	ble.n	8000aec <main+0x450>
 8000aea:	25c8      	movs	r5, #200	@ 0xc8
            msg[len++] = ',';
 8000aec:	262c      	movs	r6, #44	@ 0x2c
            msg[len++] = '{';
 8000aee:	4b8b      	ldr	r3, [pc, #556]	@ (8000d1c <main+0x680>)
 8000af0:	ac0d      	add	r4, sp, #52	@ 0x34
 8000af2:	8023      	strh	r3, [r4, #0]
            uint8_t addr = config.address;
 8000af4:	4b8a      	ldr	r3, [pc, #552]	@ (8000d20 <main+0x684>)
            msg[len++] = ',';
 8000af6:	70a6      	strb	r6, [r4, #2]
            uint8_t addr = config.address;
 8000af8:	791f      	ldrb	r7, [r3, #4]
            msg[len++] = '0' + (addr / 10);
 8000afa:	210a      	movs	r1, #10
 8000afc:	0038      	movs	r0, r7
 8000afe:	f7ff fb17 	bl	8000130 <__udivsi3>
 8000b02:	3030      	adds	r0, #48	@ 0x30
 8000b04:	70e0      	strb	r0, [r4, #3]
            msg[len++] = '0' + (addr % 10);
 8000b06:	210a      	movs	r1, #10
 8000b08:	0038      	movs	r0, r7
 8000b0a:	f7ff fb97 	bl	800023c <__aeabi_uidivmod>
 8000b0e:	3130      	adds	r1, #48	@ 0x30
 8000b10:	7121      	strb	r1, [r4, #4]
            msg[len++] = '0' + ((val / 100) % 10);
 8000b12:	0028      	movs	r0, r5
 8000b14:	2164      	movs	r1, #100	@ 0x64
            msg[len++] = ',';
 8000b16:	7166      	strb	r6, [r4, #5]
            msg[len++] = '0' + ((val / 100) % 10);
 8000b18:	f7ff fb94 	bl	8000244 <__divsi3>
 8000b1c:	3030      	adds	r0, #48	@ 0x30
            msg[len++] = '0' + ((val / 10) % 10);
 8000b1e:	210a      	movs	r1, #10
            msg[len++] = '0' + ((val / 100) % 10);
 8000b20:	71a0      	strb	r0, [r4, #6]
            msg[len++] = '0' + ((val / 10) % 10);
 8000b22:	0028      	movs	r0, r5
 8000b24:	f7ff fb8e 	bl	8000244 <__divsi3>
 8000b28:	210a      	movs	r1, #10
 8000b2a:	f7ff fc71 	bl	8000410 <__aeabi_idivmod>
 8000b2e:	3130      	adds	r1, #48	@ 0x30
 8000b30:	71e1      	strb	r1, [r4, #7]
            msg[len++] = '0' + (val % 10);
 8000b32:	0028      	movs	r0, r5
 8000b34:	210a      	movs	r1, #10
 8000b36:	f7ff fc6b 	bl	8000410 <__aeabi_idivmod>
            msg[len++] = '}';
 8000b3a:	237d      	movs	r3, #125	@ 0x7d
 8000b3c:	7263      	strb	r3, [r4, #9]
            msg[len++] = '\r';
 8000b3e:	4b79      	ldr	r3, [pc, #484]	@ (8000d24 <main+0x688>)
            msg[len++] = '0' + (val % 10);
 8000b40:	3130      	adds	r1, #48	@ 0x30
 8000b42:	7221      	strb	r1, [r4, #8]
            msg[len++] = '\r';
 8000b44:	8163      	strh	r3, [r4, #10]
            HAL_UART_Transmit(&huart2, (uint8_t*)msg, len, 50);
 8000b46:	220c      	movs	r2, #12
 8000b48:	2332      	movs	r3, #50	@ 0x32
 8000b4a:	0021      	movs	r1, r4
 8000b4c:	4871      	ldr	r0, [pc, #452]	@ (8000d14 <main+0x678>)
 8000b4e:	e79d      	b.n	8000a8c <main+0x3f0>
        case 40: enabled = 0; break;
 8000b50:	7014      	strb	r4, [r2, #0]
 8000b52:	e6e2      	b.n	800091a <main+0x27e>
        case 41: enabled = 1; break;
 8000b54:	2301      	movs	r3, #1
 8000b56:	7013      	strb	r3, [r2, #0]
 8000b58:	e6df      	b.n	800091a <main+0x27e>
	    		  speed += (error)* config.Kp * SCALE_PD;
 8000b5a:	4b71      	ldr	r3, [pc, #452]	@ (8000d20 <main+0x684>)
 8000b5c:	895a      	ldrh	r2, [r3, #10]
 8000b5e:	4354      	muls	r4, r2
	    		  speed += rolling_delta_error * config.Kd * SCALE_PD / 1000;
 8000b60:	899a      	ldrh	r2, [r3, #12]
 8000b62:	4b71      	ldr	r3, [pc, #452]	@ (8000d28 <main+0x68c>)
	    		  speed += (error)* config.Kp * SCALE_PD;
 8000b64:	434c      	muls	r4, r1
	    		  speed += rolling_delta_error * config.Kd * SCALE_PD / 1000;
 8000b66:	681b      	ldr	r3, [r3, #0]
 8000b68:	4353      	muls	r3, r2
 8000b6a:	18e0      	adds	r0, r4, r3
	      if(speed > 0) speed = speed * 5 / 10 + 500;
 8000b6c:	4288      	cmp	r0, r1
 8000b6e:	db08      	blt.n	8000b82 <main+0x4e6>
 8000b70:	21fa      	movs	r1, #250	@ 0xfa
 8000b72:	00c9      	lsls	r1, r1, #3
 8000b74:	f7ff fb66 	bl	8000244 <__divsi3>
 8000b78:	30f5      	adds	r0, #245	@ 0xf5
 8000b7a:	30ff      	adds	r0, #255	@ 0xff
	      if(speed < 0) speed = speed * 5 / 10 - 500;
 8000b7c:	e707      	b.n	800098e <main+0x2f2>
	    			  speed = 1000 * SCALE_PD;
 8000b7e:	486b      	ldr	r0, [pc, #428]	@ (8000d2c <main+0x690>)
 8000b80:	e7f6      	b.n	8000b70 <main+0x4d4>
	      speed = speed / SCALE_PD;
 8000b82:	f7ff fb5f 	bl	8000244 <__divsi3>
	      if(speed < 0) speed = speed * 5 / 10 - 500;
 8000b86:	2800      	cmp	r0, #0
 8000b88:	d100      	bne.n	8000b8c <main+0x4f0>
 8000b8a:	e700      	b.n	800098e <main+0x2f2>
 8000b8c:	0fc3      	lsrs	r3, r0, #31
 8000b8e:	1818      	adds	r0, r3, r0
 8000b90:	1040      	asrs	r0, r0, #1
	      if(speed < -999){
 8000b92:	4b67      	ldr	r3, [pc, #412]	@ (8000d30 <main+0x694>)
	      if(speed < 0) speed = speed * 5 / 10 - 500;
 8000b94:	38f5      	subs	r0, #245	@ 0xf5
 8000b96:	38ff      	subs	r0, #255	@ 0xff
	    	  speed = -999;
 8000b98:	001c      	movs	r4, r3
	      if(speed < -999){
 8000b9a:	4298      	cmp	r0, r3
 8000b9c:	db00      	blt.n	8000ba0 <main+0x504>
 8000b9e:	e6f6      	b.n	800098e <main+0x2f2>
	      if (abs(error) < config.errorTol && rolling_delta_error * 10 < config.errorTolChange){
 8000ba0:	4a5f      	ldr	r2, [pc, #380]	@ (8000d20 <main+0x684>)
 8000ba2:	89d3      	ldrh	r3, [r2, #14]
 8000ba4:	42b3      	cmp	r3, r6
 8000ba6:	d90a      	bls.n	8000bbe <main+0x522>
 8000ba8:	210a      	movs	r1, #10
 8000baa:	4b5f      	ldr	r3, [pc, #380]	@ (8000d28 <main+0x68c>)
 8000bac:	8a12      	ldrh	r2, [r2, #16]
 8000bae:	681b      	ldr	r3, [r3, #0]
 8000bb0:	434b      	muls	r3, r1
 8000bb2:	4293      	cmp	r3, r2
 8000bb4:	da03      	bge.n	8000bbe <main+0x522>
	    	  target_hit = 1;
 8000bb6:	2201      	movs	r2, #1
	    	  speed = 0;
 8000bb8:	2400      	movs	r4, #0
	    	  target_hit = 1;
 8000bba:	4b5e      	ldr	r3, [pc, #376]	@ (8000d34 <main+0x698>)
 8000bbc:	801a      	strh	r2, [r3, #0]
	      if(!enabled){
 8000bbe:	4b5e      	ldr	r3, [pc, #376]	@ (8000d38 <main+0x69c>)
 8000bc0:	781b      	ldrb	r3, [r3, #0]
 8000bc2:	2b00      	cmp	r3, #0
 8000bc4:	d072      	beq.n	8000cac <main+0x610>
	      if(speed > 0){
 8000bc6:	2c00      	cmp	r4, #0
 8000bc8:	dd65      	ble.n	8000c96 <main+0x5fa>
	    	  HAL_GPIO_WritePin(GPIOA, GPIO_PIN_8, GPIO_PIN_RESET);
 8000bca:	2180      	movs	r1, #128	@ 0x80
 8000bcc:	20a0      	movs	r0, #160	@ 0xa0
 8000bce:	2200      	movs	r2, #0
 8000bd0:	0049      	lsls	r1, r1, #1
 8000bd2:	05c0      	lsls	r0, r0, #23
 8000bd4:	f000 fbb6 	bl	8001344 <HAL_GPIO_WritePin>
	    	  HAL_GPIO_WritePin(GPIOA, GPIO_PIN_7, GPIO_PIN_SET);
 8000bd8:	2201      	movs	r2, #1
	    	  HAL_GPIO_WritePin(GPIOA, GPIO_PIN_7, GPIO_PIN_RESET);
 8000bda:	20a0      	movs	r0, #160	@ 0xa0
 8000bdc:	2180      	movs	r1, #128	@ 0x80
 8000bde:	05c0      	lsls	r0, r0, #23
 8000be0:	f000 fbb0 	bl	8001344 <HAL_GPIO_WritePin>
	      uint16_t pwm_out = abs(speed);
 8000be4:	17e3      	asrs	r3, r4, #31
 8000be6:	18e4      	adds	r4, r4, r3
 8000be8:	405c      	eors	r4, r3
	      uint32_t dt = tick - last_move_command;
 8000bea:	4b54      	ldr	r3, [pc, #336]	@ (8000d3c <main+0x6a0>)
	      uint16_t pwm_out = abs(speed);
 8000bec:	b2a6      	uxth	r6, r4
	      uint32_t dt = tick - last_move_command;
 8000bee:	6818      	ldr	r0, [r3, #0]
	      if (dt < ramp_up_time) {
 8000bf0:	4b53      	ldr	r3, [pc, #332]	@ (8000d40 <main+0x6a4>)
	      uint32_t dt = tick - last_move_command;
 8000bf2:	1a28      	subs	r0, r5, r0
	      if (dt < ramp_up_time) {
 8000bf4:	6819      	ldr	r1, [r3, #0]
 8000bf6:	4281      	cmp	r1, r0
 8000bf8:	d909      	bls.n	8000c0e <main+0x572>
	          if (pwm_out > init_speed) {
 8000bfa:	4b52      	ldr	r3, [pc, #328]	@ (8000d44 <main+0x6a8>)
 8000bfc:	881d      	ldrh	r5, [r3, #0]
 8000bfe:	42b5      	cmp	r5, r6
 8000c00:	d205      	bcs.n	8000c0e <main+0x572>
	                        ((pwm_out - init_speed) * dt) / ramp_up_time;
 8000c02:	1b64      	subs	r4, r4, r5
 8000c04:	4360      	muls	r0, r4
 8000c06:	f7ff fa93 	bl	8000130 <__udivsi3>
	              pwm_out = init_speed +
 8000c0a:	182d      	adds	r5, r5, r0
 8000c0c:	b2ae      	uxth	r6, r5
	      __HAL_TIM_SET_COMPARE(&htim3, TIM_CHANNEL_1, abs(pwm_out));
 8000c0e:	4b4e      	ldr	r3, [pc, #312]	@ (8000d48 <main+0x6ac>)
 8000c10:	681b      	ldr	r3, [r3, #0]
 8000c12:	635e      	str	r6, [r3, #52]	@ 0x34
	      if(HAL_GetTick() - last_print > 20 && debug){
 8000c14:	f000 f9b4 	bl	8000f80 <HAL_GetTick>
 8000c18:	9b02      	ldr	r3, [sp, #8]
 8000c1a:	1ac0      	subs	r0, r0, r3
 8000c1c:	2814      	cmp	r0, #20
 8000c1e:	d800      	bhi.n	8000c22 <main+0x586>
 8000c20:	e612      	b.n	8000848 <main+0x1ac>
 8000c22:	4b4a      	ldr	r3, [pc, #296]	@ (8000d4c <main+0x6b0>)
 8000c24:	781b      	ldrb	r3, [r3, #0]
 8000c26:	2b00      	cmp	r3, #0
 8000c28:	d100      	bne.n	8000c2c <main+0x590>
 8000c2a:	e60d      	b.n	8000848 <main+0x1ac>
	          last_print = HAL_GetTick();
 8000c2c:	f000 f9a8 	bl	8000f80 <HAL_GetTick>
	          int32_t values[4] = { adc_value, targetAngle, pwm_out, rolling_delta_error * 10 };
 8000c30:	220a      	movs	r2, #10
 8000c32:	9b00      	ldr	r3, [sp, #0]
 8000c34:	960f      	str	r6, [sp, #60]	@ 0x3c
 8000c36:	930d      	str	r3, [sp, #52]	@ 0x34
 8000c38:	4b45      	ldr	r3, [pc, #276]	@ (8000d50 <main+0x6b4>)
	          last_print = HAL_GetTick();
 8000c3a:	9002      	str	r0, [sp, #8]
	          int32_t values[4] = { adc_value, targetAngle, pwm_out, rolling_delta_error * 10 };
 8000c3c:	881b      	ldrh	r3, [r3, #0]
	                  buf[i++] = '0';
 8000c3e:	ae09      	add	r6, sp, #36	@ 0x24
	          int32_t values[4] = { adc_value, targetAngle, pwm_out, rolling_delta_error * 10 };
 8000c40:	930e      	str	r3, [sp, #56]	@ 0x38
 8000c42:	4b39      	ldr	r3, [pc, #228]	@ (8000d28 <main+0x68c>)
 8000c44:	681b      	ldr	r3, [r3, #0]
 8000c46:	4353      	muls	r3, r2
 8000c48:	9310      	str	r3, [sp, #64]	@ 0x40
	          for(int v = 0; v < 4; v++){
 8000c4a:	2300      	movs	r3, #0
 8000c4c:	9300      	str	r3, [sp, #0]
	              int32_t val = values[v];
 8000c4e:	9b00      	ldr	r3, [sp, #0]
 8000c50:	aa0d      	add	r2, sp, #52	@ 0x34
 8000c52:	009b      	lsls	r3, r3, #2
 8000c54:	589c      	ldr	r4, [r3, r2]
	              if(val < 0){
 8000c56:	2c00      	cmp	r4, #0
 8000c58:	da37      	bge.n	8000cca <main+0x62e>
	                  is_negative = 1;
 8000c5a:	2701      	movs	r7, #1
	              int i = 0;
 8000c5c:	2500      	movs	r5, #0
	                  val = -val;
 8000c5e:	4264      	negs	r4, r4
	              while(val > 0){
 8000c60:	2c00      	cmp	r4, #0
 8000c62:	d13b      	bne.n	8000cdc <main+0x640>
 8000c64:	002c      	movs	r4, r5
	              if(is_negative){
 8000c66:	2f00      	cmp	r7, #0
 8000c68:	d002      	beq.n	8000c70 <main+0x5d4>
	                  buf[i++] = '-';
 8000c6a:	232d      	movs	r3, #45	@ 0x2d
 8000c6c:	3401      	adds	r4, #1
 8000c6e:	5573      	strb	r3, [r6, r5]
	                  HAL_UART_Transmit(&huart2, (uint8_t*)&buf[j], 1, HAL_MAX_DELAY);
 8000c70:	2501      	movs	r5, #1
	              for(int j = i-1; j >= 0; j--){
 8000c72:	3c01      	subs	r4, #1
	                  HAL_UART_Transmit(&huart2, (uint8_t*)&buf[j], 1, HAL_MAX_DELAY);
 8000c74:	426d      	negs	r5, r5
	              for(int j = i-1; j >= 0; j--){
 8000c76:	4827      	ldr	r0, [pc, #156]	@ (8000d14 <main+0x678>)
 8000c78:	1c63      	adds	r3, r4, #1
 8000c7a:	d13b      	bne.n	8000cf4 <main+0x658>
	              if(v < 3){
 8000c7c:	9b00      	ldr	r3, [sp, #0]
 8000c7e:	2b03      	cmp	r3, #3
 8000c80:	d13f      	bne.n	8000d02 <main+0x666>
	          HAL_UART_Transmit(&huart2, (uint8_t*)"\r\n", 2, HAL_MAX_DELAY);
 8000c82:	0023      	movs	r3, r4
 8000c84:	2202      	movs	r2, #2
 8000c86:	4924      	ldr	r1, [pc, #144]	@ (8000d18 <main+0x67c>)
 8000c88:	f001 fda1 	bl	80027ce <HAL_UART_Transmit>
 8000c8c:	e5dc      	b.n	8000848 <main+0x1ac>
	      speed = speed / SCALE_PD;
 8000c8e:	4831      	ldr	r0, [pc, #196]	@ (8000d54 <main+0x6b8>)
 8000c90:	e77c      	b.n	8000b8c <main+0x4f0>
 8000c92:	2000      	movs	r0, #0
 8000c94:	e67b      	b.n	800098e <main+0x2f2>
	      } else if (speed < 0){
 8000c96:	2c00      	cmp	r4, #0
 8000c98:	d008      	beq.n	8000cac <main+0x610>
	    	  HAL_GPIO_WritePin(GPIOA, GPIO_PIN_8, GPIO_PIN_SET);
 8000c9a:	2180      	movs	r1, #128	@ 0x80
 8000c9c:	20a0      	movs	r0, #160	@ 0xa0
 8000c9e:	2201      	movs	r2, #1
 8000ca0:	0049      	lsls	r1, r1, #1
 8000ca2:	05c0      	lsls	r0, r0, #23
 8000ca4:	f000 fb4e 	bl	8001344 <HAL_GPIO_WritePin>
	    	  HAL_GPIO_WritePin(GPIOA, GPIO_PIN_7, GPIO_PIN_RESET);
 8000ca8:	2200      	movs	r2, #0
 8000caa:	e796      	b.n	8000bda <main+0x53e>
	    	  HAL_GPIO_WritePin(GPIOA, GPIO_PIN_8, GPIO_PIN_RESET);
 8000cac:	2180      	movs	r1, #128	@ 0x80
 8000cae:	20a0      	movs	r0, #160	@ 0xa0
 8000cb0:	2200      	movs	r2, #0
 8000cb2:	0049      	lsls	r1, r1, #1
 8000cb4:	05c0      	lsls	r0, r0, #23
 8000cb6:	f000 fb45 	bl	8001344 <HAL_GPIO_WritePin>
	    	  HAL_GPIO_WritePin(GPIOA, GPIO_PIN_7, GPIO_PIN_RESET);
 8000cba:	20a0      	movs	r0, #160	@ 0xa0
 8000cbc:	2200      	movs	r2, #0
 8000cbe:	2180      	movs	r1, #128	@ 0x80
 8000cc0:	05c0      	lsls	r0, r0, #23
 8000cc2:	f000 fb3f 	bl	8001344 <HAL_GPIO_WritePin>
 8000cc6:	2400      	movs	r4, #0
 8000cc8:	e78c      	b.n	8000be4 <main+0x548>
	              if(val == 0){
 8000cca:	2700      	movs	r7, #0
	              int i = 0;
 8000ccc:	003d      	movs	r5, r7
	              if(val == 0){
 8000cce:	42bc      	cmp	r4, r7
 8000cd0:	d1c6      	bne.n	8000c60 <main+0x5c4>
	                  buf[i++] = '0';
 8000cd2:	2330      	movs	r3, #48	@ 0x30
 8000cd4:	0027      	movs	r7, r4
 8000cd6:	7033      	strb	r3, [r6, #0]
 8000cd8:	3501      	adds	r5, #1
 8000cda:	e7c1      	b.n	8000c60 <main+0x5c4>
	                  buf[i++] = '0' + (val % 10);
 8000cdc:	0020      	movs	r0, r4
 8000cde:	210a      	movs	r1, #10
 8000ce0:	f7ff fb96 	bl	8000410 <__aeabi_idivmod>
 8000ce4:	3130      	adds	r1, #48	@ 0x30
	                  val /= 10;
 8000ce6:	0020      	movs	r0, r4
	                  buf[i++] = '0' + (val % 10);
 8000ce8:	55a9      	strb	r1, [r5, r6]
	                  val /= 10;
 8000cea:	210a      	movs	r1, #10
 8000cec:	f7ff faaa 	bl	8000244 <__divsi3>
 8000cf0:	0004      	movs	r4, r0
 8000cf2:	e7f1      	b.n	8000cd8 <main+0x63c>
	                  HAL_UART_Transmit(&huart2, (uint8_t*)&buf[j], 1, HAL_MAX_DELAY);
 8000cf4:	19a1      	adds	r1, r4, r6
 8000cf6:	002b      	movs	r3, r5
 8000cf8:	2201      	movs	r2, #1
 8000cfa:	f001 fd68 	bl	80027ce <HAL_UART_Transmit>
	              for(int j = i-1; j >= 0; j--){
 8000cfe:	3c01      	subs	r4, #1
 8000d00:	e7b9      	b.n	8000c76 <main+0x5da>
	                  HAL_UART_Transmit(&huart2, (uint8_t*)", ", 2, HAL_MAX_DELAY);
 8000d02:	0023      	movs	r3, r4
 8000d04:	2202      	movs	r2, #2
 8000d06:	4914      	ldr	r1, [pc, #80]	@ (8000d58 <main+0x6bc>)
 8000d08:	f001 fd61 	bl	80027ce <HAL_UART_Transmit>
	          for(int v = 0; v < 4; v++){
 8000d0c:	9b00      	ldr	r3, [sp, #0]
 8000d0e:	3301      	adds	r3, #1
 8000d10:	9300      	str	r3, [sp, #0]
 8000d12:	e79c      	b.n	8000c4e <main+0x5b2>
 8000d14:	200000b8 	.word	0x200000b8
 8000d18:	08002c08 	.word	0x08002c08
 8000d1c:	0000767b 	.word	0x0000767b
 8000d20:	20000010 	.word	0x20000010
 8000d24:	00000a0d 	.word	0x00000a0d
 8000d28:	20000090 	.word	0x20000090
 8000d2c:	000f4240 	.word	0x000f4240
 8000d30:	fffffc19 	.word	0xfffffc19
 8000d34:	2000000a 	.word	0x2000000a
 8000d38:	20000008 	.word	0x20000008
 8000d3c:	20000088 	.word	0x20000088
 8000d40:	20000004 	.word	0x20000004
 8000d44:	20000000 	.word	0x20000000
 8000d48:	2000014c 	.word	0x2000014c
 8000d4c:	2000008c 	.word	0x2000008c
 8000d50:	2000000c 	.word	0x2000000c
 8000d54:	fffffc18 	.word	0xfffffc18
 8000d58:	08002c0b 	.word	0x08002c0b

08000d5c <HAL_MspInit>:
 8000d5c:	2101      	movs	r1, #1
 8000d5e:	4b0a      	ldr	r3, [pc, #40]	@ (8000d88 <HAL_MspInit+0x2c>)
 8000d60:	b082      	sub	sp, #8
 8000d62:	6c1a      	ldr	r2, [r3, #64]	@ 0x40
 8000d64:	430a      	orrs	r2, r1
 8000d66:	641a      	str	r2, [r3, #64]	@ 0x40
 8000d68:	6c1a      	ldr	r2, [r3, #64]	@ 0x40
 8000d6a:	400a      	ands	r2, r1
 8000d6c:	2180      	movs	r1, #128	@ 0x80
 8000d6e:	9200      	str	r2, [sp, #0]
 8000d70:	9a00      	ldr	r2, [sp, #0]
 8000d72:	6bda      	ldr	r2, [r3, #60]	@ 0x3c
 8000d74:	0549      	lsls	r1, r1, #21
 8000d76:	430a      	orrs	r2, r1
 8000d78:	63da      	str	r2, [r3, #60]	@ 0x3c
 8000d7a:	6bdb      	ldr	r3, [r3, #60]	@ 0x3c
 8000d7c:	400b      	ands	r3, r1
 8000d7e:	9301      	str	r3, [sp, #4]
 8000d80:	9b01      	ldr	r3, [sp, #4]
 8000d82:	b002      	add	sp, #8
 8000d84:	4770      	bx	lr
 8000d86:	46c0      	nop			@ (mov r8, r8)
 8000d88:	40021000 	.word	0x40021000

08000d8c <HAL_TIM_Base_MspInit>:
 8000d8c:	4b07      	ldr	r3, [pc, #28]	@ (8000dac <HAL_TIM_Base_MspInit+0x20>)
 8000d8e:	6802      	ldr	r2, [r0, #0]
 8000d90:	b082      	sub	sp, #8
 8000d92:	429a      	cmp	r2, r3
 8000d94:	d108      	bne.n	8000da8 <HAL_TIM_Base_MspInit+0x1c>
 8000d96:	2102      	movs	r1, #2
 8000d98:	4b05      	ldr	r3, [pc, #20]	@ (8000db0 <HAL_TIM_Base_MspInit+0x24>)
 8000d9a:	6bda      	ldr	r2, [r3, #60]	@ 0x3c
 8000d9c:	430a      	orrs	r2, r1
 8000d9e:	63da      	str	r2, [r3, #60]	@ 0x3c
 8000da0:	6bdb      	ldr	r3, [r3, #60]	@ 0x3c
 8000da2:	400b      	ands	r3, r1
 8000da4:	9301      	str	r3, [sp, #4]
 8000da6:	9b01      	ldr	r3, [sp, #4]
 8000da8:	b002      	add	sp, #8
 8000daa:	4770      	bx	lr
 8000dac:	40000400 	.word	0x40000400
 8000db0:	40021000 	.word	0x40021000

08000db4 <HAL_TIM_MspPostInit>:
 8000db4:	b510      	push	{r4, lr}
 8000db6:	0004      	movs	r4, r0
 8000db8:	b086      	sub	sp, #24
 8000dba:	2214      	movs	r2, #20
 8000dbc:	2100      	movs	r1, #0
 8000dbe:	a801      	add	r0, sp, #4
 8000dc0:	f001 fee2 	bl	8002b88 <memset>
 8000dc4:	4b0c      	ldr	r3, [pc, #48]	@ (8000df8 <HAL_TIM_MspPostInit+0x44>)
 8000dc6:	6822      	ldr	r2, [r4, #0]
 8000dc8:	429a      	cmp	r2, r3
 8000dca:	d112      	bne.n	8000df2 <HAL_TIM_MspPostInit+0x3e>
 8000dcc:	2301      	movs	r3, #1
 8000dce:	4a0b      	ldr	r2, [pc, #44]	@ (8000dfc <HAL_TIM_MspPostInit+0x48>)
 8000dd0:	20a0      	movs	r0, #160	@ 0xa0
 8000dd2:	6b51      	ldr	r1, [r2, #52]	@ 0x34
 8000dd4:	05c0      	lsls	r0, r0, #23
 8000dd6:	4319      	orrs	r1, r3
 8000dd8:	6351      	str	r1, [r2, #52]	@ 0x34
 8000dda:	6b52      	ldr	r2, [r2, #52]	@ 0x34
 8000ddc:	a901      	add	r1, sp, #4
 8000dde:	401a      	ands	r2, r3
 8000de0:	9200      	str	r2, [sp, #0]
 8000de2:	9a00      	ldr	r2, [sp, #0]
 8000de4:	2240      	movs	r2, #64	@ 0x40
 8000de6:	9201      	str	r2, [sp, #4]
 8000de8:	3a3e      	subs	r2, #62	@ 0x3e
 8000dea:	9202      	str	r2, [sp, #8]
 8000dec:	9305      	str	r3, [sp, #20]
 8000dee:	f000 f9f5 	bl	80011dc <HAL_GPIO_Init>
 8000df2:	b006      	add	sp, #24
 8000df4:	bd10      	pop	{r4, pc}
 8000df6:	46c0      	nop			@ (mov r8, r8)
 8000df8:	40000400 	.word	0x40000400
 8000dfc:	40021000 	.word	0x40021000

08000e00 <HAL_UART_MspInit>:
 8000e00:	b530      	push	{r4, r5, lr}
 8000e02:	0004      	movs	r4, r0
 8000e04:	b089      	sub	sp, #36	@ 0x24
 8000e06:	2214      	movs	r2, #20
 8000e08:	2100      	movs	r1, #0
 8000e0a:	a803      	add	r0, sp, #12
 8000e0c:	f001 febc 	bl	8002b88 <memset>
 8000e10:	4b1b      	ldr	r3, [pc, #108]	@ (8000e80 <HAL_UART_MspInit+0x80>)
 8000e12:	6822      	ldr	r2, [r4, #0]
 8000e14:	429a      	cmp	r2, r3
 8000e16:	d130      	bne.n	8000e7a <HAL_UART_MspInit+0x7a>
 8000e18:	2180      	movs	r1, #128	@ 0x80
 8000e1a:	4b1a      	ldr	r3, [pc, #104]	@ (8000e84 <HAL_UART_MspInit+0x84>)
 8000e1c:	0289      	lsls	r1, r1, #10
 8000e1e:	6bda      	ldr	r2, [r3, #60]	@ 0x3c
 8000e20:	2401      	movs	r4, #1
 8000e22:	430a      	orrs	r2, r1
 8000e24:	63da      	str	r2, [r3, #60]	@ 0x3c
 8000e26:	6bda      	ldr	r2, [r3, #60]	@ 0x3c
 8000e28:	2502      	movs	r5, #2
 8000e2a:	400a      	ands	r2, r1
 8000e2c:	2104      	movs	r1, #4
 8000e2e:	9200      	str	r2, [sp, #0]
 8000e30:	9a00      	ldr	r2, [sp, #0]
 8000e32:	6b5a      	ldr	r2, [r3, #52]	@ 0x34
 8000e34:	4814      	ldr	r0, [pc, #80]	@ (8000e88 <HAL_UART_MspInit+0x88>)
 8000e36:	430a      	orrs	r2, r1
 8000e38:	635a      	str	r2, [r3, #52]	@ 0x34
 8000e3a:	6b5a      	ldr	r2, [r3, #52]	@ 0x34
 8000e3c:	400a      	ands	r2, r1
 8000e3e:	9201      	str	r2, [sp, #4]
 8000e40:	9a01      	ldr	r2, [sp, #4]
 8000e42:	6b5a      	ldr	r2, [r3, #52]	@ 0x34
 8000e44:	a903      	add	r1, sp, #12
 8000e46:	4322      	orrs	r2, r4
 8000e48:	635a      	str	r2, [r3, #52]	@ 0x34
 8000e4a:	6b5b      	ldr	r3, [r3, #52]	@ 0x34
 8000e4c:	9504      	str	r5, [sp, #16]
 8000e4e:	4023      	ands	r3, r4
 8000e50:	9302      	str	r3, [sp, #8]
 8000e52:	9b02      	ldr	r3, [sp, #8]
 8000e54:	2380      	movs	r3, #128	@ 0x80
 8000e56:	01db      	lsls	r3, r3, #7
 8000e58:	9303      	str	r3, [sp, #12]
 8000e5a:	2309      	movs	r3, #9
 8000e5c:	9307      	str	r3, [sp, #28]
 8000e5e:	f000 f9bd 	bl	80011dc <HAL_GPIO_Init>
 8000e62:	230c      	movs	r3, #12
 8000e64:	20a0      	movs	r0, #160	@ 0xa0
 8000e66:	9303      	str	r3, [sp, #12]
 8000e68:	2300      	movs	r3, #0
 8000e6a:	a903      	add	r1, sp, #12
 8000e6c:	05c0      	lsls	r0, r0, #23
 8000e6e:	9504      	str	r5, [sp, #16]
 8000e70:	9305      	str	r3, [sp, #20]
 8000e72:	9306      	str	r3, [sp, #24]
 8000e74:	9407      	str	r4, [sp, #28]
 8000e76:	f000 f9b1 	bl	80011dc <HAL_GPIO_Init>
 8000e7a:	b009      	add	sp, #36	@ 0x24
 8000e7c:	bd30      	pop	{r4, r5, pc}
 8000e7e:	46c0      	nop			@ (mov r8, r8)
 8000e80:	40004400 	.word	0x40004400
 8000e84:	40021000 	.word	0x40021000
 8000e88:	50000800 	.word	0x50000800

08000e8c <NMI_Handler>:
 8000e8c:	e7fe      	b.n	8000e8c <NMI_Handler>

08000e8e <HardFault_Handler>:
 8000e8e:	e7fe      	b.n	8000e8e <HardFault_Handler>

08000e90 <SVC_Handler>:
 8000e90:	4770      	bx	lr

08000e92 <PendSV_Handler>:
 8000e92:	4770      	bx	lr

08000e94 <SysTick_Handler>:
 8000e94:	b510      	push	{r4, lr}
 8000e96:	f000 f867 	bl	8000f68 <HAL_IncTick>
 8000e9a:	bd10      	pop	{r4, pc}

08000e9c <SystemInit>:
 8000e9c:	2280      	movs	r2, #128	@ 0x80
 8000e9e:	4b02      	ldr	r3, [pc, #8]	@ (8000ea8 <SystemInit+0xc>)
 8000ea0:	0512      	lsls	r2, r2, #20
 8000ea2:	609a      	str	r2, [r3, #8]
 8000ea4:	4770      	bx	lr
 8000ea6:	46c0      	nop			@ (mov r8, r8)
 8000ea8:	e000ed00 	.word	0xe000ed00

08000eac <Reset_Handler>:
 8000eac:	480d      	ldr	r0, [pc, #52]	@ (8000ee4 <LoopForever+0x2>)
 8000eae:	4685      	mov	sp, r0
 8000eb0:	f7ff fff4 	bl	8000e9c <SystemInit>
 8000eb4:	2100      	movs	r1, #0
 8000eb6:	e003      	b.n	8000ec0 <LoopCopyDataInit>

08000eb8 <CopyDataInit>:
 8000eb8:	4b0b      	ldr	r3, [pc, #44]	@ (8000ee8 <LoopForever+0x6>)
 8000eba:	585b      	ldr	r3, [r3, r1]
 8000ebc:	5043      	str	r3, [r0, r1]
 8000ebe:	3104      	adds	r1, #4

08000ec0 <LoopCopyDataInit>:
 8000ec0:	480a      	ldr	r0, [pc, #40]	@ (8000eec <LoopForever+0xa>)
 8000ec2:	4b0b      	ldr	r3, [pc, #44]	@ (8000ef0 <LoopForever+0xe>)
 8000ec4:	1842      	adds	r2, r0, r1
 8000ec6:	429a      	cmp	r2, r3
 8000ec8:	d3f6      	bcc.n	8000eb8 <CopyDataInit>
 8000eca:	4a0a      	ldr	r2, [pc, #40]	@ (8000ef4 <LoopForever+0x12>)
 8000ecc:	e002      	b.n	8000ed4 <LoopFillZerobss>

08000ece <FillZerobss>:
 8000ece:	2300      	movs	r3, #0
 8000ed0:	6013      	str	r3, [r2, #0]
 8000ed2:	3204      	adds	r2, #4

08000ed4 <LoopFillZerobss>:
 8000ed4:	4b08      	ldr	r3, [pc, #32]	@ (8000ef8 <LoopForever+0x16>)
 8000ed6:	429a      	cmp	r2, r3
 8000ed8:	d3f9      	bcc.n	8000ece <FillZerobss>
 8000eda:	f001 fe5d 	bl	8002b98 <__libc_init_array>
 8000ede:	f7ff fbdd 	bl	800069c <main>

08000ee2 <LoopForever>:
 8000ee2:	e7fe      	b.n	8000ee2 <LoopForever>
 8000ee4:	20001800 	.word	0x20001800
 8000ee8:	08002c94 	.word	0x08002c94
 8000eec:	20000000 	.word	0x20000000
 8000ef0:	20000068 	.word	0x20000068
 8000ef4:	20000068 	.word	0x20000068
 8000ef8:	200001b4 	.word	0x200001b4

08000efc <ADC1_IRQHandler>:
 8000efc:	e7fe      	b.n	8000efc <ADC1_IRQHandler>
	...

08000f00 <HAL_InitTick>:
 8000f00:	b570      	push	{r4, r5, r6, lr}
 8000f02:	4b10      	ldr	r3, [pc, #64]	@ (8000f44 <HAL_InitTick+0x44>)
 8000f04:	0005      	movs	r5, r0
 8000f06:	7819      	ldrb	r1, [r3, #0]
 8000f08:	2900      	cmp	r1, #0
 8000f0a:	d101      	bne.n	8000f10 <HAL_InitTick+0x10>
 8000f0c:	2001      	movs	r0, #1
 8000f0e:	bd70      	pop	{r4, r5, r6, pc}
 8000f10:	20fa      	movs	r0, #250	@ 0xfa
 8000f12:	0080      	lsls	r0, r0, #2
 8000f14:	f7ff f90c 	bl	8000130 <__udivsi3>
 8000f18:	4c0b      	ldr	r4, [pc, #44]	@ (8000f48 <HAL_InitTick+0x48>)
 8000f1a:	0001      	movs	r1, r0
 8000f1c:	6820      	ldr	r0, [r4, #0]
 8000f1e:	f7ff f907 	bl	8000130 <__udivsi3>
 8000f22:	f000 f869 	bl	8000ff8 <HAL_SYSTICK_Config>
 8000f26:	1e04      	subs	r4, r0, #0
 8000f28:	d1f0      	bne.n	8000f0c <HAL_InitTick+0xc>
 8000f2a:	2d03      	cmp	r5, #3
 8000f2c:	d8ee      	bhi.n	8000f0c <HAL_InitTick+0xc>
 8000f2e:	0002      	movs	r2, r0
 8000f30:	2001      	movs	r0, #1
 8000f32:	0029      	movs	r1, r5
 8000f34:	4240      	negs	r0, r0
 8000f36:	f000 f829 	bl	8000f8c <HAL_NVIC_SetPriority>
 8000f3a:	4b04      	ldr	r3, [pc, #16]	@ (8000f4c <HAL_InitTick+0x4c>)
 8000f3c:	0020      	movs	r0, r4
 8000f3e:	601d      	str	r5, [r3, #0]
 8000f40:	e7e5      	b.n	8000f0e <HAL_InitTick+0xe>
 8000f42:	46c0      	nop			@ (mov r8, r8)
 8000f44:	20000028 	.word	0x20000028
 8000f48:	20000024 	.word	0x20000024
 8000f4c:	2000002c 	.word	0x2000002c

08000f50 <HAL_Init>:
 8000f50:	b510      	push	{r4, lr}
 8000f52:	2003      	movs	r0, #3
 8000f54:	f7ff ffd4 	bl	8000f00 <HAL_InitTick>
 8000f58:	1e04      	subs	r4, r0, #0
 8000f5a:	d103      	bne.n	8000f64 <HAL_Init+0x14>
 8000f5c:	f7ff fefe 	bl	8000d5c <HAL_MspInit>
 8000f60:	0020      	movs	r0, r4
 8000f62:	bd10      	pop	{r4, pc}
 8000f64:	2401      	movs	r4, #1
 8000f66:	e7fb      	b.n	8000f60 <HAL_Init+0x10>

08000f68 <HAL_IncTick>:
 8000f68:	4a03      	ldr	r2, [pc, #12]	@ (8000f78 <HAL_IncTick+0x10>)
 8000f6a:	4b04      	ldr	r3, [pc, #16]	@ (8000f7c <HAL_IncTick+0x14>)
 8000f6c:	6811      	ldr	r1, [r2, #0]
 8000f6e:	781b      	ldrb	r3, [r3, #0]
 8000f70:	185b      	adds	r3, r3, r1
 8000f72:	6013      	str	r3, [r2, #0]
 8000f74:	4770      	bx	lr
 8000f76:	46c0      	nop			@ (mov r8, r8)
 8000f78:	20000198 	.word	0x20000198
 8000f7c:	20000028 	.word	0x20000028

08000f80 <HAL_GetTick>:
 8000f80:	4b01      	ldr	r3, [pc, #4]	@ (8000f88 <HAL_GetTick+0x8>)
 8000f82:	6818      	ldr	r0, [r3, #0]
 8000f84:	4770      	bx	lr
 8000f86:	46c0      	nop			@ (mov r8, r8)
 8000f88:	20000198 	.word	0x20000198

08000f8c <HAL_NVIC_SetPriority>:
 8000f8c:	b510      	push	{r4, lr}
 8000f8e:	24ff      	movs	r4, #255	@ 0xff
 8000f90:	2203      	movs	r2, #3
 8000f92:	000b      	movs	r3, r1
 8000f94:	0021      	movs	r1, r4
 8000f96:	4002      	ands	r2, r0
 8000f98:	00d2      	lsls	r2, r2, #3
 8000f9a:	4091      	lsls	r1, r2
 8000f9c:	019b      	lsls	r3, r3, #6
 8000f9e:	4023      	ands	r3, r4
 8000fa0:	43c9      	mvns	r1, r1
 8000fa2:	4093      	lsls	r3, r2
 8000fa4:	2800      	cmp	r0, #0
 8000fa6:	db0a      	blt.n	8000fbe <HAL_NVIC_SetPriority+0x32>
 8000fa8:	24c0      	movs	r4, #192	@ 0xc0
 8000faa:	4a0b      	ldr	r2, [pc, #44]	@ (8000fd8 <HAL_NVIC_SetPriority+0x4c>)
 8000fac:	0880      	lsrs	r0, r0, #2
 8000fae:	0080      	lsls	r0, r0, #2
 8000fb0:	1880      	adds	r0, r0, r2
 8000fb2:	00a4      	lsls	r4, r4, #2
 8000fb4:	5902      	ldr	r2, [r0, r4]
 8000fb6:	400a      	ands	r2, r1
 8000fb8:	4313      	orrs	r3, r2
 8000fba:	5103      	str	r3, [r0, r4]
 8000fbc:	bd10      	pop	{r4, pc}
 8000fbe:	220f      	movs	r2, #15
 8000fc0:	4010      	ands	r0, r2
 8000fc2:	3808      	subs	r0, #8
 8000fc4:	4a05      	ldr	r2, [pc, #20]	@ (8000fdc <HAL_NVIC_SetPriority+0x50>)
 8000fc6:	0880      	lsrs	r0, r0, #2
 8000fc8:	0080      	lsls	r0, r0, #2
 8000fca:	1880      	adds	r0, r0, r2
 8000fcc:	69c2      	ldr	r2, [r0, #28]
 8000fce:	4011      	ands	r1, r2
 8000fd0:	4319      	orrs	r1, r3
 8000fd2:	61c1      	str	r1, [r0, #28]
 8000fd4:	e7f2      	b.n	8000fbc <HAL_NVIC_SetPriority+0x30>
 8000fd6:	46c0      	nop			@ (mov r8, r8)
 8000fd8:	e000e100 	.word	0xe000e100
 8000fdc:	e000ed00 	.word	0xe000ed00

08000fe0 <HAL_NVIC_EnableIRQ>:
 8000fe0:	2800      	cmp	r0, #0
 8000fe2:	db05      	blt.n	8000ff0 <HAL_NVIC_EnableIRQ+0x10>
 8000fe4:	231f      	movs	r3, #31
 8000fe6:	4018      	ands	r0, r3
 8000fe8:	3b1e      	subs	r3, #30
 8000fea:	4083      	lsls	r3, r0
 8000fec:	4a01      	ldr	r2, [pc, #4]	@ (8000ff4 <HAL_NVIC_EnableIRQ+0x14>)
 8000fee:	6013      	str	r3, [r2, #0]
 8000ff0:	4770      	bx	lr
 8000ff2:	46c0      	nop			@ (mov r8, r8)
 8000ff4:	e000e100 	.word	0xe000e100

08000ff8 <HAL_SYSTICK_Config>:
 8000ff8:	2280      	movs	r2, #128	@ 0x80
 8000ffa:	1e43      	subs	r3, r0, #1
 8000ffc:	0452      	lsls	r2, r2, #17
 8000ffe:	2001      	movs	r0, #1
 8001000:	4293      	cmp	r3, r2
 8001002:	d20d      	bcs.n	8001020 <HAL_SYSTICK_Config+0x28>
 8001004:	21c0      	movs	r1, #192	@ 0xc0
 8001006:	4a07      	ldr	r2, [pc, #28]	@ (8001024 <HAL_SYSTICK_Config+0x2c>)
 8001008:	4807      	ldr	r0, [pc, #28]	@ (8001028 <HAL_SYSTICK_Config+0x30>)
 800100a:	6053      	str	r3, [r2, #4]
 800100c:	6a03      	ldr	r3, [r0, #32]
 800100e:	0609      	lsls	r1, r1, #24
 8001010:	021b      	lsls	r3, r3, #8
 8001012:	0a1b      	lsrs	r3, r3, #8
 8001014:	430b      	orrs	r3, r1
 8001016:	6203      	str	r3, [r0, #32]
 8001018:	2000      	movs	r0, #0
 800101a:	2307      	movs	r3, #7
 800101c:	6090      	str	r0, [r2, #8]
 800101e:	6013      	str	r3, [r2, #0]
 8001020:	4770      	bx	lr
 8001022:	46c0      	nop			@ (mov r8, r8)
 8001024:	e000e010 	.word	0xe000e010
 8001028:	e000ed00 	.word	0xe000ed00

0800102c <HAL_FLASH_Unlock>:
 800102c:	2000      	movs	r0, #0
 800102e:	4b05      	ldr	r3, [pc, #20]	@ (8001044 <HAL_FLASH_Unlock+0x18>)
 8001030:	695a      	ldr	r2, [r3, #20]
 8001032:	4282      	cmp	r2, r0
 8001034:	da05      	bge.n	8001042 <HAL_FLASH_Unlock+0x16>
 8001036:	4a04      	ldr	r2, [pc, #16]	@ (8001048 <HAL_FLASH_Unlock+0x1c>)
 8001038:	609a      	str	r2, [r3, #8]
 800103a:	4a04      	ldr	r2, [pc, #16]	@ (800104c <HAL_FLASH_Unlock+0x20>)
 800103c:	609a      	str	r2, [r3, #8]
 800103e:	6958      	ldr	r0, [r3, #20]
 8001040:	0fc0      	lsrs	r0, r0, #31
 8001042:	4770      	bx	lr
 8001044:	40022000 	.word	0x40022000
 8001048:	45670123 	.word	0x45670123
 800104c:	cdef89ab 	.word	0xcdef89ab

08001050 <HAL_FLASH_Lock>:
 8001050:	2280      	movs	r2, #128	@ 0x80
 8001052:	4b04      	ldr	r3, [pc, #16]	@ (8001064 <HAL_FLASH_Lock+0x14>)
 8001054:	0612      	lsls	r2, r2, #24
 8001056:	6959      	ldr	r1, [r3, #20]
 8001058:	430a      	orrs	r2, r1
 800105a:	615a      	str	r2, [r3, #20]
 800105c:	6958      	ldr	r0, [r3, #20]
 800105e:	43c0      	mvns	r0, r0
 8001060:	0fc0      	lsrs	r0, r0, #31
 8001062:	4770      	bx	lr
 8001064:	40022000 	.word	0x40022000

08001068 <FLASH_WaitForLastOperation>:
 8001068:	b5f8      	push	{r3, r4, r5, r6, r7, lr}
 800106a:	0005      	movs	r5, r0
 800106c:	2780      	movs	r7, #128	@ 0x80
 800106e:	f7ff ff87 	bl	8000f80 <HAL_GetTick>
 8001072:	027f      	lsls	r7, r7, #9
 8001074:	1946      	adds	r6, r0, r5
 8001076:	4c11      	ldr	r4, [pc, #68]	@ (80010bc <FLASH_WaitForLastOperation+0x54>)
 8001078:	6923      	ldr	r3, [r4, #16]
 800107a:	423b      	tst	r3, r7
 800107c:	d005      	beq.n	800108a <FLASH_WaitForLastOperation+0x22>
 800107e:	f7ff ff7f 	bl	8000f80 <HAL_GetTick>
 8001082:	42b0      	cmp	r0, r6
 8001084:	d3f7      	bcc.n	8001076 <FLASH_WaitForLastOperation+0xe>
 8001086:	2003      	movs	r0, #3
 8001088:	e007      	b.n	800109a <FLASH_WaitForLastOperation+0x32>
 800108a:	6923      	ldr	r3, [r4, #16]
 800108c:	4a0c      	ldr	r2, [pc, #48]	@ (80010c0 <FLASH_WaitForLastOperation+0x58>)
 800108e:	4013      	ands	r3, r2
 8001090:	6123      	str	r3, [r4, #16]
 8001092:	d003      	beq.n	800109c <FLASH_WaitForLastOperation+0x34>
 8001094:	2001      	movs	r0, #1
 8001096:	4a0b      	ldr	r2, [pc, #44]	@ (80010c4 <FLASH_WaitForLastOperation+0x5c>)
 8001098:	6053      	str	r3, [r2, #4]
 800109a:	bdf8      	pop	{r3, r4, r5, r6, r7, pc}
 800109c:	f7ff ff70 	bl	8000f80 <HAL_GetTick>
 80010a0:	2680      	movs	r6, #128	@ 0x80
 80010a2:	1945      	adds	r5, r0, r5
 80010a4:	02f6      	lsls	r6, r6, #11
 80010a6:	6923      	ldr	r3, [r4, #16]
 80010a8:	0018      	movs	r0, r3
 80010aa:	4030      	ands	r0, r6
 80010ac:	4233      	tst	r3, r6
 80010ae:	d0f4      	beq.n	800109a <FLASH_WaitForLastOperation+0x32>
 80010b0:	f7ff ff66 	bl	8000f80 <HAL_GetTick>
 80010b4:	42a8      	cmp	r0, r5
 80010b6:	d3f6      	bcc.n	80010a6 <FLASH_WaitForLastOperation+0x3e>
 80010b8:	e7e5      	b.n	8001086 <FLASH_WaitForLastOperation+0x1e>
 80010ba:	46c0      	nop			@ (mov r8, r8)
 80010bc:	40022000 	.word	0x40022000
 80010c0:	0000c3fa 	.word	0x0000c3fa
 80010c4:	2000019c 	.word	0x2000019c

080010c8 <HAL_FLASH_Program>:
 80010c8:	b5f7      	push	{r0, r1, r2, r4, r5, r6, r7, lr}
 80010ca:	4e17      	ldr	r6, [pc, #92]	@ (8001128 <HAL_FLASH_Program+0x60>)
 80010cc:	9301      	str	r3, [sp, #4]
 80010ce:	7833      	ldrb	r3, [r6, #0]
 80010d0:	0004      	movs	r4, r0
 80010d2:	000d      	movs	r5, r1
 80010d4:	2002      	movs	r0, #2
 80010d6:	9200      	str	r2, [sp, #0]
 80010d8:	2b01      	cmp	r3, #1
 80010da:	d01e      	beq.n	800111a <HAL_FLASH_Program+0x52>
 80010dc:	2301      	movs	r3, #1
 80010de:	20fa      	movs	r0, #250	@ 0xfa
 80010e0:	7033      	strb	r3, [r6, #0]
 80010e2:	2300      	movs	r3, #0
 80010e4:	0080      	lsls	r0, r0, #2
 80010e6:	6073      	str	r3, [r6, #4]
 80010e8:	f7ff ffbe 	bl	8001068 <FLASH_WaitForLastOperation>
 80010ec:	2800      	cmp	r0, #0
 80010ee:	d112      	bne.n	8001116 <HAL_FLASH_Program+0x4e>
 80010f0:	4f0e      	ldr	r7, [pc, #56]	@ (800112c <HAL_FLASH_Program+0x64>)
 80010f2:	2c01      	cmp	r4, #1
 80010f4:	d112      	bne.n	800111c <HAL_FLASH_Program+0x54>
 80010f6:	697b      	ldr	r3, [r7, #20]
 80010f8:	4323      	orrs	r3, r4
 80010fa:	617b      	str	r3, [r7, #20]
 80010fc:	9b00      	ldr	r3, [sp, #0]
 80010fe:	602b      	str	r3, [r5, #0]
 8001100:	f3bf 8f6f 	isb	sy
 8001104:	9b01      	ldr	r3, [sp, #4]
 8001106:	606b      	str	r3, [r5, #4]
 8001108:	20fa      	movs	r0, #250	@ 0xfa
 800110a:	0080      	lsls	r0, r0, #2
 800110c:	f7ff ffac 	bl	8001068 <FLASH_WaitForLastOperation>
 8001110:	697b      	ldr	r3, [r7, #20]
 8001112:	43a3      	bics	r3, r4
 8001114:	617b      	str	r3, [r7, #20]
 8001116:	2300      	movs	r3, #0
 8001118:	7033      	strb	r3, [r6, #0]
 800111a:	bdfe      	pop	{r1, r2, r3, r4, r5, r6, r7, pc}
 800111c:	0028      	movs	r0, r5
 800111e:	9900      	ldr	r1, [sp, #0]
 8001120:	f001 fd6a 	bl	8002bf8 <__FLASH_Program_Fast_veneer>
 8001124:	e7f0      	b.n	8001108 <HAL_FLASH_Program+0x40>
 8001126:	46c0      	nop			@ (mov r8, r8)
 8001128:	2000019c 	.word	0x2000019c
 800112c:	40022000 	.word	0x40022000

08001130 <FLASH_PageErase>:
 8001130:	2178      	movs	r1, #120	@ 0x78
 8001132:	4a04      	ldr	r2, [pc, #16]	@ (8001144 <FLASH_PageErase+0x14>)
 8001134:	00c0      	lsls	r0, r0, #3
 8001136:	6953      	ldr	r3, [r2, #20]
 8001138:	438b      	bics	r3, r1
 800113a:	4318      	orrs	r0, r3
 800113c:	4b02      	ldr	r3, [pc, #8]	@ (8001148 <FLASH_PageErase+0x18>)
 800113e:	4303      	orrs	r3, r0
 8001140:	6153      	str	r3, [r2, #20]
 8001142:	4770      	bx	lr
 8001144:	40022000 	.word	0x40022000
 8001148:	00010002 	.word	0x00010002

0800114c <HAL_FLASHEx_Erase>:
 800114c:	b5f7      	push	{r0, r1, r2, r4, r5, r6, r7, lr}
 800114e:	4f20      	ldr	r7, [pc, #128]	@ (80011d0 <HAL_FLASHEx_Erase+0x84>)
 8001150:	0005      	movs	r5, r0
 8001152:	783b      	ldrb	r3, [r7, #0]
 8001154:	2402      	movs	r4, #2
 8001156:	9101      	str	r1, [sp, #4]
 8001158:	2b01      	cmp	r3, #1
 800115a:	d018      	beq.n	800118e <HAL_FLASHEx_Erase+0x42>
 800115c:	2301      	movs	r3, #1
 800115e:	20fa      	movs	r0, #250	@ 0xfa
 8001160:	703b      	strb	r3, [r7, #0]
 8001162:	2300      	movs	r3, #0
 8001164:	0080      	lsls	r0, r0, #2
 8001166:	607b      	str	r3, [r7, #4]
 8001168:	f7ff ff7e 	bl	8001068 <FLASH_WaitForLastOperation>
 800116c:	1e04      	subs	r4, r0, #0
 800116e:	d10c      	bne.n	800118a <HAL_FLASHEx_Erase+0x3e>
 8001170:	682b      	ldr	r3, [r5, #0]
 8001172:	2b04      	cmp	r3, #4
 8001174:	d10d      	bne.n	8001192 <HAL_FLASHEx_Erase+0x46>
 8001176:	20fa      	movs	r0, #250	@ 0xfa
 8001178:	4a16      	ldr	r2, [pc, #88]	@ (80011d4 <HAL_FLASHEx_Erase+0x88>)
 800117a:	4b17      	ldr	r3, [pc, #92]	@ (80011d8 <HAL_FLASHEx_Erase+0x8c>)
 800117c:	6951      	ldr	r1, [r2, #20]
 800117e:	0080      	lsls	r0, r0, #2
 8001180:	430b      	orrs	r3, r1
 8001182:	6153      	str	r3, [r2, #20]
 8001184:	f7ff ff70 	bl	8001068 <FLASH_WaitForLastOperation>
 8001188:	0004      	movs	r4, r0
 800118a:	2300      	movs	r3, #0
 800118c:	703b      	strb	r3, [r7, #0]
 800118e:	0020      	movs	r0, r4
 8001190:	bdfe      	pop	{r1, r2, r3, r4, r5, r6, r7, pc}
 8001192:	2301      	movs	r3, #1
 8001194:	9a01      	ldr	r2, [sp, #4]
 8001196:	425b      	negs	r3, r3
 8001198:	6013      	str	r3, [r2, #0]
 800119a:	686e      	ldr	r6, [r5, #4]
 800119c:	686b      	ldr	r3, [r5, #4]
 800119e:	68aa      	ldr	r2, [r5, #8]
 80011a0:	189b      	adds	r3, r3, r2
 80011a2:	42b3      	cmp	r3, r6
 80011a4:	d90b      	bls.n	80011be <HAL_FLASHEx_Erase+0x72>
 80011a6:	0030      	movs	r0, r6
 80011a8:	f7ff ffc2 	bl	8001130 <FLASH_PageErase>
 80011ac:	20fa      	movs	r0, #250	@ 0xfa
 80011ae:	0080      	lsls	r0, r0, #2
 80011b0:	f7ff ff5a 	bl	8001068 <FLASH_WaitForLastOperation>
 80011b4:	2800      	cmp	r0, #0
 80011b6:	d008      	beq.n	80011ca <HAL_FLASHEx_Erase+0x7e>
 80011b8:	0004      	movs	r4, r0
 80011ba:	9b01      	ldr	r3, [sp, #4]
 80011bc:	601e      	str	r6, [r3, #0]
 80011be:	2102      	movs	r1, #2
 80011c0:	4a04      	ldr	r2, [pc, #16]	@ (80011d4 <HAL_FLASHEx_Erase+0x88>)
 80011c2:	6953      	ldr	r3, [r2, #20]
 80011c4:	438b      	bics	r3, r1
 80011c6:	6153      	str	r3, [r2, #20]
 80011c8:	e7df      	b.n	800118a <HAL_FLASHEx_Erase+0x3e>
 80011ca:	3601      	adds	r6, #1
 80011cc:	e7e6      	b.n	800119c <HAL_FLASHEx_Erase+0x50>
 80011ce:	46c0      	nop			@ (mov r8, r8)
 80011d0:	2000019c 	.word	0x2000019c
 80011d4:	40022000 	.word	0x40022000
 80011d8:	00010004 	.word	0x00010004

080011dc <HAL_GPIO_Init>:
 80011dc:	2300      	movs	r3, #0
 80011de:	469c      	mov	ip, r3
 80011e0:	b5f0      	push	{r4, r5, r6, r7, lr}
 80011e2:	b085      	sub	sp, #20
 80011e4:	680b      	ldr	r3, [r1, #0]
 80011e6:	4664      	mov	r4, ip
 80011e8:	001a      	movs	r2, r3
 80011ea:	40e2      	lsrs	r2, r4
 80011ec:	d101      	bne.n	80011f2 <HAL_GPIO_Init+0x16>
 80011ee:	b005      	add	sp, #20
 80011f0:	bdf0      	pop	{r4, r5, r6, r7, pc}
 80011f2:	4662      	mov	r2, ip
 80011f4:	2601      	movs	r6, #1
 80011f6:	4096      	lsls	r6, r2
 80011f8:	001a      	movs	r2, r3
 80011fa:	4032      	ands	r2, r6
 80011fc:	9201      	str	r2, [sp, #4]
 80011fe:	4233      	tst	r3, r6
 8001200:	d100      	bne.n	8001204 <HAL_GPIO_Init+0x28>
 8001202:	e080      	b.n	8001306 <HAL_GPIO_Init+0x12a>
 8001204:	684f      	ldr	r7, [r1, #4]
 8001206:	2310      	movs	r3, #16
 8001208:	003d      	movs	r5, r7
 800120a:	439d      	bics	r5, r3
 800120c:	9503      	str	r5, [sp, #12]
 800120e:	2d02      	cmp	r5, #2
 8001210:	d114      	bne.n	800123c <HAL_GPIO_Init+0x60>
 8001212:	4663      	mov	r3, ip
 8001214:	08da      	lsrs	r2, r3, #3
 8001216:	0092      	lsls	r2, r2, #2
 8001218:	1882      	adds	r2, r0, r2
 800121a:	6a13      	ldr	r3, [r2, #32]
 800121c:	2407      	movs	r4, #7
 800121e:	001d      	movs	r5, r3
 8001220:	4663      	mov	r3, ip
 8001222:	401c      	ands	r4, r3
 8001224:	230f      	movs	r3, #15
 8001226:	00a4      	lsls	r4, r4, #2
 8001228:	40a3      	lsls	r3, r4
 800122a:	439d      	bics	r5, r3
 800122c:	9502      	str	r5, [sp, #8]
 800122e:	250f      	movs	r5, #15
 8001230:	690b      	ldr	r3, [r1, #16]
 8001232:	402b      	ands	r3, r5
 8001234:	40a3      	lsls	r3, r4
 8001236:	9c02      	ldr	r4, [sp, #8]
 8001238:	4323      	orrs	r3, r4
 800123a:	6213      	str	r3, [r2, #32]
 800123c:	4663      	mov	r3, ip
 800123e:	005a      	lsls	r2, r3, #1
 8001240:	2303      	movs	r3, #3
 8001242:	4093      	lsls	r3, r2
 8001244:	6804      	ldr	r4, [r0, #0]
 8001246:	43dd      	mvns	r5, r3
 8001248:	439c      	bics	r4, r3
 800124a:	2303      	movs	r3, #3
 800124c:	403b      	ands	r3, r7
 800124e:	4093      	lsls	r3, r2
 8001250:	9502      	str	r5, [sp, #8]
 8001252:	9d03      	ldr	r5, [sp, #12]
 8001254:	4323      	orrs	r3, r4
 8001256:	3d01      	subs	r5, #1
 8001258:	6003      	str	r3, [r0, #0]
 800125a:	2d01      	cmp	r5, #1
 800125c:	d956      	bls.n	800130c <HAL_GPIO_Init+0x130>
 800125e:	2f03      	cmp	r7, #3
 8001260:	d051      	beq.n	8001306 <HAL_GPIO_Init+0x12a>
 8001262:	68c4      	ldr	r4, [r0, #12]
 8001264:	9b02      	ldr	r3, [sp, #8]
 8001266:	401c      	ands	r4, r3
 8001268:	688b      	ldr	r3, [r1, #8]
 800126a:	4093      	lsls	r3, r2
 800126c:	4323      	orrs	r3, r4
 800126e:	60c3      	str	r3, [r0, #12]
 8001270:	2380      	movs	r3, #128	@ 0x80
 8001272:	055b      	lsls	r3, r3, #21
 8001274:	421f      	tst	r7, r3
 8001276:	d046      	beq.n	8001306 <HAL_GPIO_Init+0x12a>
 8001278:	4663      	mov	r3, ip
 800127a:	089a      	lsrs	r2, r3, #2
 800127c:	4b2b      	ldr	r3, [pc, #172]	@ (800132c <HAL_GPIO_Init+0x150>)
 800127e:	0092      	lsls	r2, r2, #2
 8001280:	18d2      	adds	r2, r2, r3
 8001282:	2403      	movs	r4, #3
 8001284:	4663      	mov	r3, ip
 8001286:	401c      	ands	r4, r3
 8001288:	230f      	movs	r3, #15
 800128a:	00e4      	lsls	r4, r4, #3
 800128c:	40a3      	lsls	r3, r4
 800128e:	26a0      	movs	r6, #160	@ 0xa0
 8001290:	6e15      	ldr	r5, [r2, #96]	@ 0x60
 8001292:	05f6      	lsls	r6, r6, #23
 8001294:	439d      	bics	r5, r3
 8001296:	2300      	movs	r3, #0
 8001298:	42b0      	cmp	r0, r6
 800129a:	d00c      	beq.n	80012b6 <HAL_GPIO_Init+0xda>
 800129c:	4e24      	ldr	r6, [pc, #144]	@ (8001330 <HAL_GPIO_Init+0x154>)
 800129e:	3301      	adds	r3, #1
 80012a0:	42b0      	cmp	r0, r6
 80012a2:	d008      	beq.n	80012b6 <HAL_GPIO_Init+0xda>
 80012a4:	4e23      	ldr	r6, [pc, #140]	@ (8001334 <HAL_GPIO_Init+0x158>)
 80012a6:	3301      	adds	r3, #1
 80012a8:	42b0      	cmp	r0, r6
 80012aa:	d004      	beq.n	80012b6 <HAL_GPIO_Init+0xda>
 80012ac:	4b22      	ldr	r3, [pc, #136]	@ (8001338 <HAL_GPIO_Init+0x15c>)
 80012ae:	18c3      	adds	r3, r0, r3
 80012b0:	1e5e      	subs	r6, r3, #1
 80012b2:	41b3      	sbcs	r3, r6
 80012b4:	3305      	adds	r3, #5
 80012b6:	40a3      	lsls	r3, r4
 80012b8:	432b      	orrs	r3, r5
 80012ba:	6613      	str	r3, [r2, #96]	@ 0x60
 80012bc:	4b1f      	ldr	r3, [pc, #124]	@ (800133c <HAL_GPIO_Init+0x160>)
 80012be:	9a01      	ldr	r2, [sp, #4]
 80012c0:	6fdd      	ldr	r5, [r3, #124]	@ 0x7c
 80012c2:	9c01      	ldr	r4, [sp, #4]
 80012c4:	43d2      	mvns	r2, r2
 80012c6:	432c      	orrs	r4, r5
 80012c8:	03fe      	lsls	r6, r7, #15
 80012ca:	d401      	bmi.n	80012d0 <HAL_GPIO_Init+0xf4>
 80012cc:	002c      	movs	r4, r5
 80012ce:	4014      	ands	r4, r2
 80012d0:	67dc      	str	r4, [r3, #124]	@ 0x7c
 80012d2:	4c1b      	ldr	r4, [pc, #108]	@ (8001340 <HAL_GPIO_Init+0x164>)
 80012d4:	9d01      	ldr	r5, [sp, #4]
 80012d6:	6fe3      	ldr	r3, [r4, #124]	@ 0x7c
 80012d8:	431d      	orrs	r5, r3
 80012da:	03be      	lsls	r6, r7, #14
 80012dc:	d401      	bmi.n	80012e2 <HAL_GPIO_Init+0x106>
 80012de:	4013      	ands	r3, r2
 80012e0:	001d      	movs	r5, r3
 80012e2:	4b12      	ldr	r3, [pc, #72]	@ (800132c <HAL_GPIO_Init+0x150>)
 80012e4:	67e5      	str	r5, [r4, #124]	@ 0x7c
 80012e6:	681d      	ldr	r5, [r3, #0]
 80012e8:	9c01      	ldr	r4, [sp, #4]
 80012ea:	432c      	orrs	r4, r5
 80012ec:	02fe      	lsls	r6, r7, #11
 80012ee:	d401      	bmi.n	80012f4 <HAL_GPIO_Init+0x118>
 80012f0:	002c      	movs	r4, r5
 80012f2:	4014      	ands	r4, r2
 80012f4:	601c      	str	r4, [r3, #0]
 80012f6:	685c      	ldr	r4, [r3, #4]
 80012f8:	9d01      	ldr	r5, [sp, #4]
 80012fa:	4325      	orrs	r5, r4
 80012fc:	02bf      	lsls	r7, r7, #10
 80012fe:	d401      	bmi.n	8001304 <HAL_GPIO_Init+0x128>
 8001300:	4014      	ands	r4, r2
 8001302:	0025      	movs	r5, r4
 8001304:	605d      	str	r5, [r3, #4]
 8001306:	2301      	movs	r3, #1
 8001308:	449c      	add	ip, r3
 800130a:	e76b      	b.n	80011e4 <HAL_GPIO_Init+0x8>
 800130c:	6884      	ldr	r4, [r0, #8]
 800130e:	9b02      	ldr	r3, [sp, #8]
 8001310:	4665      	mov	r5, ip
 8001312:	401c      	ands	r4, r3
 8001314:	68cb      	ldr	r3, [r1, #12]
 8001316:	4093      	lsls	r3, r2
 8001318:	4323      	orrs	r3, r4
 800131a:	6083      	str	r3, [r0, #8]
 800131c:	093b      	lsrs	r3, r7, #4
 800131e:	40ab      	lsls	r3, r5
 8001320:	6844      	ldr	r4, [r0, #4]
 8001322:	43b4      	bics	r4, r6
 8001324:	4323      	orrs	r3, r4
 8001326:	6043      	str	r3, [r0, #4]
 8001328:	e79b      	b.n	8001262 <HAL_GPIO_Init+0x86>
 800132a:	46c0      	nop			@ (mov r8, r8)
 800132c:	40021800 	.word	0x40021800
 8001330:	50000400 	.word	0x50000400
 8001334:	50000800 	.word	0x50000800
 8001338:	afffec00 	.word	0xafffec00
 800133c:	40021804 	.word	0x40021804
 8001340:	40021808 	.word	0x40021808

08001344 <HAL_GPIO_WritePin>:
 8001344:	2a00      	cmp	r2, #0
 8001346:	d001      	beq.n	800134c <HAL_GPIO_WritePin+0x8>
 8001348:	6181      	str	r1, [r0, #24]
 800134a:	4770      	bx	lr
 800134c:	6281      	str	r1, [r0, #40]	@ 0x28
 800134e:	e7fc      	b.n	800134a <HAL_GPIO_WritePin+0x6>

08001350 <HAL_RCC_OscConfig>:
 8001350:	b5f8      	push	{r3, r4, r5, r6, r7, lr}
 8001352:	1e05      	subs	r5, r0, #0
 8001354:	d101      	bne.n	800135a <HAL_RCC_OscConfig+0xa>
 8001356:	2001      	movs	r0, #1
 8001358:	bdf8      	pop	{r3, r4, r5, r6, r7, pc}
 800135a:	6803      	ldr	r3, [r0, #0]
 800135c:	07db      	lsls	r3, r3, #31
 800135e:	d40d      	bmi.n	800137c <HAL_RCC_OscConfig+0x2c>
 8001360:	682b      	ldr	r3, [r5, #0]
 8001362:	079b      	lsls	r3, r3, #30
 8001364:	d44f      	bmi.n	8001406 <HAL_RCC_OscConfig+0xb6>
 8001366:	682b      	ldr	r3, [r5, #0]
 8001368:	071b      	lsls	r3, r3, #28
 800136a:	d500      	bpl.n	800136e <HAL_RCC_OscConfig+0x1e>
 800136c:	e0a4      	b.n	80014b8 <HAL_RCC_OscConfig+0x168>
 800136e:	2204      	movs	r2, #4
 8001370:	682b      	ldr	r3, [r5, #0]
 8001372:	4213      	tst	r3, r2
 8001374:	d000      	beq.n	8001378 <HAL_RCC_OscConfig+0x28>
 8001376:	e0cf      	b.n	8001518 <HAL_RCC_OscConfig+0x1c8>
 8001378:	2000      	movs	r0, #0
 800137a:	e7ed      	b.n	8001358 <HAL_RCC_OscConfig+0x8>
 800137c:	2138      	movs	r1, #56	@ 0x38
 800137e:	4c85      	ldr	r4, [pc, #532]	@ (8001594 <HAL_RCC_OscConfig+0x244>)
 8001380:	6843      	ldr	r3, [r0, #4]
 8001382:	68a2      	ldr	r2, [r4, #8]
 8001384:	400a      	ands	r2, r1
 8001386:	2a08      	cmp	r2, #8
 8001388:	d102      	bne.n	8001390 <HAL_RCC_OscConfig+0x40>
 800138a:	2b00      	cmp	r3, #0
 800138c:	d1e8      	bne.n	8001360 <HAL_RCC_OscConfig+0x10>
 800138e:	e7e2      	b.n	8001356 <HAL_RCC_OscConfig+0x6>
 8001390:	2280      	movs	r2, #128	@ 0x80
 8001392:	0252      	lsls	r2, r2, #9
 8001394:	4293      	cmp	r3, r2
 8001396:	d111      	bne.n	80013bc <HAL_RCC_OscConfig+0x6c>
 8001398:	6822      	ldr	r2, [r4, #0]
 800139a:	4313      	orrs	r3, r2
 800139c:	6023      	str	r3, [r4, #0]
 800139e:	f7ff fdef 	bl	8000f80 <HAL_GetTick>
 80013a2:	2780      	movs	r7, #128	@ 0x80
 80013a4:	0006      	movs	r6, r0
 80013a6:	02bf      	lsls	r7, r7, #10
 80013a8:	6823      	ldr	r3, [r4, #0]
 80013aa:	423b      	tst	r3, r7
 80013ac:	d1d8      	bne.n	8001360 <HAL_RCC_OscConfig+0x10>
 80013ae:	f7ff fde7 	bl	8000f80 <HAL_GetTick>
 80013b2:	1b80      	subs	r0, r0, r6
 80013b4:	2864      	cmp	r0, #100	@ 0x64
 80013b6:	d9f7      	bls.n	80013a8 <HAL_RCC_OscConfig+0x58>
 80013b8:	2003      	movs	r0, #3
 80013ba:	e7cd      	b.n	8001358 <HAL_RCC_OscConfig+0x8>
 80013bc:	21a0      	movs	r1, #160	@ 0xa0
 80013be:	02c9      	lsls	r1, r1, #11
 80013c0:	428b      	cmp	r3, r1
 80013c2:	d108      	bne.n	80013d6 <HAL_RCC_OscConfig+0x86>
 80013c4:	2380      	movs	r3, #128	@ 0x80
 80013c6:	6821      	ldr	r1, [r4, #0]
 80013c8:	02db      	lsls	r3, r3, #11
 80013ca:	430b      	orrs	r3, r1
 80013cc:	6023      	str	r3, [r4, #0]
 80013ce:	6823      	ldr	r3, [r4, #0]
 80013d0:	431a      	orrs	r2, r3
 80013d2:	6022      	str	r2, [r4, #0]
 80013d4:	e7e3      	b.n	800139e <HAL_RCC_OscConfig+0x4e>
 80013d6:	6822      	ldr	r2, [r4, #0]
 80013d8:	496f      	ldr	r1, [pc, #444]	@ (8001598 <HAL_RCC_OscConfig+0x248>)
 80013da:	400a      	ands	r2, r1
 80013dc:	6022      	str	r2, [r4, #0]
 80013de:	6822      	ldr	r2, [r4, #0]
 80013e0:	496e      	ldr	r1, [pc, #440]	@ (800159c <HAL_RCC_OscConfig+0x24c>)
 80013e2:	400a      	ands	r2, r1
 80013e4:	6022      	str	r2, [r4, #0]
 80013e6:	2b00      	cmp	r3, #0
 80013e8:	d1d9      	bne.n	800139e <HAL_RCC_OscConfig+0x4e>
 80013ea:	f7ff fdc9 	bl	8000f80 <HAL_GetTick>
 80013ee:	2780      	movs	r7, #128	@ 0x80
 80013f0:	0006      	movs	r6, r0
 80013f2:	02bf      	lsls	r7, r7, #10
 80013f4:	6823      	ldr	r3, [r4, #0]
 80013f6:	423b      	tst	r3, r7
 80013f8:	d0b2      	beq.n	8001360 <HAL_RCC_OscConfig+0x10>
 80013fa:	f7ff fdc1 	bl	8000f80 <HAL_GetTick>
 80013fe:	1b80      	subs	r0, r0, r6
 8001400:	2864      	cmp	r0, #100	@ 0x64
 8001402:	d9f7      	bls.n	80013f4 <HAL_RCC_OscConfig+0xa4>
 8001404:	e7d8      	b.n	80013b8 <HAL_RCC_OscConfig+0x68>
 8001406:	2238      	movs	r2, #56	@ 0x38
 8001408:	4c62      	ldr	r4, [pc, #392]	@ (8001594 <HAL_RCC_OscConfig+0x244>)
 800140a:	68eb      	ldr	r3, [r5, #12]
 800140c:	68a1      	ldr	r1, [r4, #8]
 800140e:	4211      	tst	r1, r2
 8001410:	d11c      	bne.n	800144c <HAL_RCC_OscConfig+0xfc>
 8001412:	2b00      	cmp	r3, #0
 8001414:	d09f      	beq.n	8001356 <HAL_RCC_OscConfig+0x6>
 8001416:	6862      	ldr	r2, [r4, #4]
 8001418:	696b      	ldr	r3, [r5, #20]
 800141a:	4961      	ldr	r1, [pc, #388]	@ (80015a0 <HAL_RCC_OscConfig+0x250>)
 800141c:	021b      	lsls	r3, r3, #8
 800141e:	400a      	ands	r2, r1
 8001420:	4313      	orrs	r3, r2
 8001422:	6063      	str	r3, [r4, #4]
 8001424:	6823      	ldr	r3, [r4, #0]
 8001426:	4a5f      	ldr	r2, [pc, #380]	@ (80015a4 <HAL_RCC_OscConfig+0x254>)
 8001428:	495f      	ldr	r1, [pc, #380]	@ (80015a8 <HAL_RCC_OscConfig+0x258>)
 800142a:	4013      	ands	r3, r2
 800142c:	692a      	ldr	r2, [r5, #16]
 800142e:	4313      	orrs	r3, r2
 8001430:	6023      	str	r3, [r4, #0]
 8001432:	6823      	ldr	r3, [r4, #0]
 8001434:	4a5d      	ldr	r2, [pc, #372]	@ (80015ac <HAL_RCC_OscConfig+0x25c>)
 8001436:	049b      	lsls	r3, r3, #18
 8001438:	0f5b      	lsrs	r3, r3, #29
 800143a:	40da      	lsrs	r2, r3
 800143c:	4b5c      	ldr	r3, [pc, #368]	@ (80015b0 <HAL_RCC_OscConfig+0x260>)
 800143e:	600a      	str	r2, [r1, #0]
 8001440:	6818      	ldr	r0, [r3, #0]
 8001442:	f7ff fd5d 	bl	8000f00 <HAL_InitTick>
 8001446:	2800      	cmp	r0, #0
 8001448:	d08d      	beq.n	8001366 <HAL_RCC_OscConfig+0x16>
 800144a:	e784      	b.n	8001356 <HAL_RCC_OscConfig+0x6>
 800144c:	2b00      	cmp	r3, #0
 800144e:	d020      	beq.n	8001492 <HAL_RCC_OscConfig+0x142>
 8001450:	6823      	ldr	r3, [r4, #0]
 8001452:	4a54      	ldr	r2, [pc, #336]	@ (80015a4 <HAL_RCC_OscConfig+0x254>)
 8001454:	2780      	movs	r7, #128	@ 0x80
 8001456:	4013      	ands	r3, r2
 8001458:	692a      	ldr	r2, [r5, #16]
 800145a:	00ff      	lsls	r7, r7, #3
 800145c:	4313      	orrs	r3, r2
 800145e:	6023      	str	r3, [r4, #0]
 8001460:	2380      	movs	r3, #128	@ 0x80
 8001462:	6822      	ldr	r2, [r4, #0]
 8001464:	005b      	lsls	r3, r3, #1
 8001466:	4313      	orrs	r3, r2
 8001468:	6023      	str	r3, [r4, #0]
 800146a:	f7ff fd89 	bl	8000f80 <HAL_GetTick>
 800146e:	0006      	movs	r6, r0
 8001470:	6823      	ldr	r3, [r4, #0]
 8001472:	423b      	tst	r3, r7
 8001474:	d007      	beq.n	8001486 <HAL_RCC_OscConfig+0x136>
 8001476:	6862      	ldr	r2, [r4, #4]
 8001478:	696b      	ldr	r3, [r5, #20]
 800147a:	4949      	ldr	r1, [pc, #292]	@ (80015a0 <HAL_RCC_OscConfig+0x250>)
 800147c:	021b      	lsls	r3, r3, #8
 800147e:	400a      	ands	r2, r1
 8001480:	4313      	orrs	r3, r2
 8001482:	6063      	str	r3, [r4, #4]
 8001484:	e76f      	b.n	8001366 <HAL_RCC_OscConfig+0x16>
 8001486:	f7ff fd7b 	bl	8000f80 <HAL_GetTick>
 800148a:	1b80      	subs	r0, r0, r6
 800148c:	2802      	cmp	r0, #2
 800148e:	d9ef      	bls.n	8001470 <HAL_RCC_OscConfig+0x120>
 8001490:	e792      	b.n	80013b8 <HAL_RCC_OscConfig+0x68>
 8001492:	6823      	ldr	r3, [r4, #0]
 8001494:	4a47      	ldr	r2, [pc, #284]	@ (80015b4 <HAL_RCC_OscConfig+0x264>)
 8001496:	2780      	movs	r7, #128	@ 0x80
 8001498:	4013      	ands	r3, r2
 800149a:	6023      	str	r3, [r4, #0]
 800149c:	f7ff fd70 	bl	8000f80 <HAL_GetTick>
 80014a0:	0006      	movs	r6, r0
 80014a2:	00ff      	lsls	r7, r7, #3
 80014a4:	6823      	ldr	r3, [r4, #0]
 80014a6:	423b      	tst	r3, r7
 80014a8:	d100      	bne.n	80014ac <HAL_RCC_OscConfig+0x15c>
 80014aa:	e75c      	b.n	8001366 <HAL_RCC_OscConfig+0x16>
 80014ac:	f7ff fd68 	bl	8000f80 <HAL_GetTick>
 80014b0:	1b80      	subs	r0, r0, r6
 80014b2:	2802      	cmp	r0, #2
 80014b4:	d9f6      	bls.n	80014a4 <HAL_RCC_OscConfig+0x154>
 80014b6:	e77f      	b.n	80013b8 <HAL_RCC_OscConfig+0x68>
 80014b8:	2138      	movs	r1, #56	@ 0x38
 80014ba:	4c36      	ldr	r4, [pc, #216]	@ (8001594 <HAL_RCC_OscConfig+0x244>)
 80014bc:	69aa      	ldr	r2, [r5, #24]
 80014be:	68a3      	ldr	r3, [r4, #8]
 80014c0:	400b      	ands	r3, r1
 80014c2:	2b18      	cmp	r3, #24
 80014c4:	d103      	bne.n	80014ce <HAL_RCC_OscConfig+0x17e>
 80014c6:	2a00      	cmp	r2, #0
 80014c8:	d000      	beq.n	80014cc <HAL_RCC_OscConfig+0x17c>
 80014ca:	e750      	b.n	800136e <HAL_RCC_OscConfig+0x1e>
 80014cc:	e743      	b.n	8001356 <HAL_RCC_OscConfig+0x6>
 80014ce:	2301      	movs	r3, #1
 80014d0:	2a00      	cmp	r2, #0
 80014d2:	d010      	beq.n	80014f6 <HAL_RCC_OscConfig+0x1a6>
 80014d4:	6e22      	ldr	r2, [r4, #96]	@ 0x60
 80014d6:	2702      	movs	r7, #2
 80014d8:	4313      	orrs	r3, r2
 80014da:	6623      	str	r3, [r4, #96]	@ 0x60
 80014dc:	f7ff fd50 	bl	8000f80 <HAL_GetTick>
 80014e0:	0006      	movs	r6, r0
 80014e2:	6e23      	ldr	r3, [r4, #96]	@ 0x60
 80014e4:	423b      	tst	r3, r7
 80014e6:	d000      	beq.n	80014ea <HAL_RCC_OscConfig+0x19a>
 80014e8:	e741      	b.n	800136e <HAL_RCC_OscConfig+0x1e>
 80014ea:	f7ff fd49 	bl	8000f80 <HAL_GetTick>
 80014ee:	1b80      	subs	r0, r0, r6
 80014f0:	2802      	cmp	r0, #2
 80014f2:	d9f6      	bls.n	80014e2 <HAL_RCC_OscConfig+0x192>
 80014f4:	e760      	b.n	80013b8 <HAL_RCC_OscConfig+0x68>
 80014f6:	6e22      	ldr	r2, [r4, #96]	@ 0x60
 80014f8:	2702      	movs	r7, #2
 80014fa:	439a      	bics	r2, r3
 80014fc:	6622      	str	r2, [r4, #96]	@ 0x60
 80014fe:	f7ff fd3f 	bl	8000f80 <HAL_GetTick>
 8001502:	0006      	movs	r6, r0
 8001504:	6e23      	ldr	r3, [r4, #96]	@ 0x60
 8001506:	423b      	tst	r3, r7
 8001508:	d100      	bne.n	800150c <HAL_RCC_OscConfig+0x1bc>
 800150a:	e730      	b.n	800136e <HAL_RCC_OscConfig+0x1e>
 800150c:	f7ff fd38 	bl	8000f80 <HAL_GetTick>
 8001510:	1b80      	subs	r0, r0, r6
 8001512:	2802      	cmp	r0, #2
 8001514:	d9f6      	bls.n	8001504 <HAL_RCC_OscConfig+0x1b4>
 8001516:	e74f      	b.n	80013b8 <HAL_RCC_OscConfig+0x68>
 8001518:	2138      	movs	r1, #56	@ 0x38
 800151a:	4c1e      	ldr	r4, [pc, #120]	@ (8001594 <HAL_RCC_OscConfig+0x244>)
 800151c:	68a8      	ldr	r0, [r5, #8]
 800151e:	68a3      	ldr	r3, [r4, #8]
 8001520:	400b      	ands	r3, r1
 8001522:	2b20      	cmp	r3, #32
 8001524:	d103      	bne.n	800152e <HAL_RCC_OscConfig+0x1de>
 8001526:	4243      	negs	r3, r0
 8001528:	4158      	adcs	r0, r3
 800152a:	b2c0      	uxtb	r0, r0
 800152c:	e714      	b.n	8001358 <HAL_RCC_OscConfig+0x8>
 800152e:	6de3      	ldr	r3, [r4, #92]	@ 0x5c
 8001530:	2801      	cmp	r0, #1
 8001532:	d110      	bne.n	8001556 <HAL_RCC_OscConfig+0x206>
 8001534:	4303      	orrs	r3, r0
 8001536:	65e3      	str	r3, [r4, #92]	@ 0x5c
 8001538:	f7ff fd22 	bl	8000f80 <HAL_GetTick>
 800153c:	2602      	movs	r6, #2
 800153e:	0005      	movs	r5, r0
 8001540:	6de3      	ldr	r3, [r4, #92]	@ 0x5c
 8001542:	4233      	tst	r3, r6
 8001544:	d000      	beq.n	8001548 <HAL_RCC_OscConfig+0x1f8>
 8001546:	e717      	b.n	8001378 <HAL_RCC_OscConfig+0x28>
 8001548:	f7ff fd1a 	bl	8000f80 <HAL_GetTick>
 800154c:	4b1a      	ldr	r3, [pc, #104]	@ (80015b8 <HAL_RCC_OscConfig+0x268>)
 800154e:	1b40      	subs	r0, r0, r5
 8001550:	4298      	cmp	r0, r3
 8001552:	d9f5      	bls.n	8001540 <HAL_RCC_OscConfig+0x1f0>
 8001554:	e730      	b.n	80013b8 <HAL_RCC_OscConfig+0x68>
 8001556:	2805      	cmp	r0, #5
 8001558:	d105      	bne.n	8001566 <HAL_RCC_OscConfig+0x216>
 800155a:	4313      	orrs	r3, r2
 800155c:	65e3      	str	r3, [r4, #92]	@ 0x5c
 800155e:	2301      	movs	r3, #1
 8001560:	6de2      	ldr	r2, [r4, #92]	@ 0x5c
 8001562:	4313      	orrs	r3, r2
 8001564:	e7e7      	b.n	8001536 <HAL_RCC_OscConfig+0x1e6>
 8001566:	2101      	movs	r1, #1
 8001568:	438b      	bics	r3, r1
 800156a:	65e3      	str	r3, [r4, #92]	@ 0x5c
 800156c:	6de3      	ldr	r3, [r4, #92]	@ 0x5c
 800156e:	4393      	bics	r3, r2
 8001570:	65e3      	str	r3, [r4, #92]	@ 0x5c
 8001572:	2800      	cmp	r0, #0
 8001574:	d1e0      	bne.n	8001538 <HAL_RCC_OscConfig+0x1e8>
 8001576:	f7ff fd03 	bl	8000f80 <HAL_GetTick>
 800157a:	2602      	movs	r6, #2
 800157c:	0005      	movs	r5, r0
 800157e:	6de3      	ldr	r3, [r4, #92]	@ 0x5c
 8001580:	4233      	tst	r3, r6
 8001582:	d100      	bne.n	8001586 <HAL_RCC_OscConfig+0x236>
 8001584:	e6f8      	b.n	8001378 <HAL_RCC_OscConfig+0x28>
 8001586:	f7ff fcfb 	bl	8000f80 <HAL_GetTick>
 800158a:	4b0b      	ldr	r3, [pc, #44]	@ (80015b8 <HAL_RCC_OscConfig+0x268>)
 800158c:	1b40      	subs	r0, r0, r5
 800158e:	4298      	cmp	r0, r3
 8001590:	d9f5      	bls.n	800157e <HAL_RCC_OscConfig+0x22e>
 8001592:	e711      	b.n	80013b8 <HAL_RCC_OscConfig+0x68>
 8001594:	40021000 	.word	0x40021000
 8001598:	fffeffff 	.word	0xfffeffff
 800159c:	fffbffff 	.word	0xfffbffff
 80015a0:	ffff80ff 	.word	0xffff80ff
 80015a4:	ffffc7ff 	.word	0xffffc7ff
 80015a8:	20000024 	.word	0x20000024
 80015ac:	02dc6c00 	.word	0x02dc6c00
 80015b0:	2000002c 	.word	0x2000002c
 80015b4:	fffffeff 	.word	0xfffffeff
 80015b8:	00001388 	.word	0x00001388

080015bc <HAL_RCC_GetSysClockFreq>:
 80015bc:	2238      	movs	r2, #56	@ 0x38
 80015be:	4b0f      	ldr	r3, [pc, #60]	@ (80015fc <HAL_RCC_GetSysClockFreq+0x40>)
 80015c0:	6899      	ldr	r1, [r3, #8]
 80015c2:	4211      	tst	r1, r2
 80015c4:	d105      	bne.n	80015d2 <HAL_RCC_GetSysClockFreq+0x16>
 80015c6:	681b      	ldr	r3, [r3, #0]
 80015c8:	480d      	ldr	r0, [pc, #52]	@ (8001600 <HAL_RCC_GetSysClockFreq+0x44>)
 80015ca:	049b      	lsls	r3, r3, #18
 80015cc:	0f5b      	lsrs	r3, r3, #29
 80015ce:	40d8      	lsrs	r0, r3
 80015d0:	4770      	bx	lr
 80015d2:	6899      	ldr	r1, [r3, #8]
 80015d4:	4011      	ands	r1, r2
 80015d6:	2908      	cmp	r1, #8
 80015d8:	d00b      	beq.n	80015f2 <HAL_RCC_GetSysClockFreq+0x36>
 80015da:	6899      	ldr	r1, [r3, #8]
 80015dc:	4011      	ands	r1, r2
 80015de:	2920      	cmp	r1, #32
 80015e0:	d009      	beq.n	80015f6 <HAL_RCC_GetSysClockFreq+0x3a>
 80015e2:	689b      	ldr	r3, [r3, #8]
 80015e4:	2000      	movs	r0, #0
 80015e6:	4013      	ands	r3, r2
 80015e8:	2b18      	cmp	r3, #24
 80015ea:	d1f1      	bne.n	80015d0 <HAL_RCC_GetSysClockFreq+0x14>
 80015ec:	20fa      	movs	r0, #250	@ 0xfa
 80015ee:	01c0      	lsls	r0, r0, #7
 80015f0:	e7ee      	b.n	80015d0 <HAL_RCC_GetSysClockFreq+0x14>
 80015f2:	4804      	ldr	r0, [pc, #16]	@ (8001604 <HAL_RCC_GetSysClockFreq+0x48>)
 80015f4:	e7ec      	b.n	80015d0 <HAL_RCC_GetSysClockFreq+0x14>
 80015f6:	2080      	movs	r0, #128	@ 0x80
 80015f8:	0200      	lsls	r0, r0, #8
 80015fa:	e7e9      	b.n	80015d0 <HAL_RCC_GetSysClockFreq+0x14>
 80015fc:	40021000 	.word	0x40021000
 8001600:	02dc6c00 	.word	0x02dc6c00
 8001604:	007a1200 	.word	0x007a1200

08001608 <HAL_RCC_ClockConfig>:
 8001608:	b5f7      	push	{r0, r1, r2, r4, r5, r6, r7, lr}
 800160a:	0004      	movs	r4, r0
 800160c:	000d      	movs	r5, r1
 800160e:	2800      	cmp	r0, #0
 8001610:	d101      	bne.n	8001616 <HAL_RCC_ClockConfig+0xe>
 8001612:	2001      	movs	r0, #1
 8001614:	bdfe      	pop	{r1, r2, r3, r4, r5, r6, r7, pc}
 8001616:	2707      	movs	r7, #7
 8001618:	4e48      	ldr	r6, [pc, #288]	@ (800173c <HAL_RCC_ClockConfig+0x134>)
 800161a:	6833      	ldr	r3, [r6, #0]
 800161c:	403b      	ands	r3, r7
 800161e:	428b      	cmp	r3, r1
 8001620:	d32a      	bcc.n	8001678 <HAL_RCC_ClockConfig+0x70>
 8001622:	6822      	ldr	r2, [r4, #0]
 8001624:	0793      	lsls	r3, r2, #30
 8001626:	d43b      	bmi.n	80016a0 <HAL_RCC_ClockConfig+0x98>
 8001628:	07d2      	lsls	r2, r2, #31
 800162a:	d44a      	bmi.n	80016c2 <HAL_RCC_ClockConfig+0xba>
 800162c:	2707      	movs	r7, #7
 800162e:	6833      	ldr	r3, [r6, #0]
 8001630:	403b      	ands	r3, r7
 8001632:	42ab      	cmp	r3, r5
 8001634:	d90a      	bls.n	800164c <HAL_RCC_ClockConfig+0x44>
 8001636:	6833      	ldr	r3, [r6, #0]
 8001638:	43bb      	bics	r3, r7
 800163a:	432b      	orrs	r3, r5
 800163c:	6033      	str	r3, [r6, #0]
 800163e:	f7ff fc9f 	bl	8000f80 <HAL_GetTick>
 8001642:	9001      	str	r0, [sp, #4]
 8001644:	6833      	ldr	r3, [r6, #0]
 8001646:	403b      	ands	r3, r7
 8001648:	42ab      	cmp	r3, r5
 800164a:	d167      	bne.n	800171c <HAL_RCC_ClockConfig+0x114>
 800164c:	6823      	ldr	r3, [r4, #0]
 800164e:	4d3c      	ldr	r5, [pc, #240]	@ (8001740 <HAL_RCC_ClockConfig+0x138>)
 8001650:	075b      	lsls	r3, r3, #29
 8001652:	d46b      	bmi.n	800172c <HAL_RCC_ClockConfig+0x124>
 8001654:	f7ff ffb2 	bl	80015bc <HAL_RCC_GetSysClockFreq>
 8001658:	68ab      	ldr	r3, [r5, #8]
 800165a:	493a      	ldr	r1, [pc, #232]	@ (8001744 <HAL_RCC_ClockConfig+0x13c>)
 800165c:	051b      	lsls	r3, r3, #20
 800165e:	0f1b      	lsrs	r3, r3, #28
 8001660:	009b      	lsls	r3, r3, #2
 8001662:	585b      	ldr	r3, [r3, r1]
 8001664:	211f      	movs	r1, #31
 8001666:	400b      	ands	r3, r1
 8001668:	40d8      	lsrs	r0, r3
 800166a:	4a37      	ldr	r2, [pc, #220]	@ (8001748 <HAL_RCC_ClockConfig+0x140>)
 800166c:	4b37      	ldr	r3, [pc, #220]	@ (800174c <HAL_RCC_ClockConfig+0x144>)
 800166e:	6010      	str	r0, [r2, #0]
 8001670:	6818      	ldr	r0, [r3, #0]
 8001672:	f7ff fc45 	bl	8000f00 <HAL_InitTick>
 8001676:	e7cd      	b.n	8001614 <HAL_RCC_ClockConfig+0xc>
 8001678:	6833      	ldr	r3, [r6, #0]
 800167a:	43bb      	bics	r3, r7
 800167c:	430b      	orrs	r3, r1
 800167e:	6033      	str	r3, [r6, #0]
 8001680:	f7ff fc7e 	bl	8000f80 <HAL_GetTick>
 8001684:	9001      	str	r0, [sp, #4]
 8001686:	6833      	ldr	r3, [r6, #0]
 8001688:	403b      	ands	r3, r7
 800168a:	42ab      	cmp	r3, r5
 800168c:	d0c9      	beq.n	8001622 <HAL_RCC_ClockConfig+0x1a>
 800168e:	f7ff fc77 	bl	8000f80 <HAL_GetTick>
 8001692:	9b01      	ldr	r3, [sp, #4]
 8001694:	1ac0      	subs	r0, r0, r3
 8001696:	4b2e      	ldr	r3, [pc, #184]	@ (8001750 <HAL_RCC_ClockConfig+0x148>)
 8001698:	4298      	cmp	r0, r3
 800169a:	d9f4      	bls.n	8001686 <HAL_RCC_ClockConfig+0x7e>
 800169c:	2003      	movs	r0, #3
 800169e:	e7b9      	b.n	8001614 <HAL_RCC_ClockConfig+0xc>
 80016a0:	4927      	ldr	r1, [pc, #156]	@ (8001740 <HAL_RCC_ClockConfig+0x138>)
 80016a2:	0753      	lsls	r3, r2, #29
 80016a4:	d506      	bpl.n	80016b4 <HAL_RCC_ClockConfig+0xac>
 80016a6:	6888      	ldr	r0, [r1, #8]
 80016a8:	4b2a      	ldr	r3, [pc, #168]	@ (8001754 <HAL_RCC_ClockConfig+0x14c>)
 80016aa:	4018      	ands	r0, r3
 80016ac:	23b0      	movs	r3, #176	@ 0xb0
 80016ae:	011b      	lsls	r3, r3, #4
 80016b0:	4303      	orrs	r3, r0
 80016b2:	608b      	str	r3, [r1, #8]
 80016b4:	688b      	ldr	r3, [r1, #8]
 80016b6:	4828      	ldr	r0, [pc, #160]	@ (8001758 <HAL_RCC_ClockConfig+0x150>)
 80016b8:	4003      	ands	r3, r0
 80016ba:	68e0      	ldr	r0, [r4, #12]
 80016bc:	4303      	orrs	r3, r0
 80016be:	608b      	str	r3, [r1, #8]
 80016c0:	e7b2      	b.n	8001628 <HAL_RCC_ClockConfig+0x20>
 80016c2:	6862      	ldr	r2, [r4, #4]
 80016c4:	4f1e      	ldr	r7, [pc, #120]	@ (8001740 <HAL_RCC_ClockConfig+0x138>)
 80016c6:	2a01      	cmp	r2, #1
 80016c8:	d119      	bne.n	80016fe <HAL_RCC_ClockConfig+0xf6>
 80016ca:	683b      	ldr	r3, [r7, #0]
 80016cc:	039b      	lsls	r3, r3, #14
 80016ce:	d5a0      	bpl.n	8001612 <HAL_RCC_ClockConfig+0xa>
 80016d0:	2107      	movs	r1, #7
 80016d2:	68bb      	ldr	r3, [r7, #8]
 80016d4:	438b      	bics	r3, r1
 80016d6:	4313      	orrs	r3, r2
 80016d8:	60bb      	str	r3, [r7, #8]
 80016da:	f7ff fc51 	bl	8000f80 <HAL_GetTick>
 80016de:	9001      	str	r0, [sp, #4]
 80016e0:	2338      	movs	r3, #56	@ 0x38
 80016e2:	68ba      	ldr	r2, [r7, #8]
 80016e4:	401a      	ands	r2, r3
 80016e6:	6863      	ldr	r3, [r4, #4]
 80016e8:	00db      	lsls	r3, r3, #3
 80016ea:	429a      	cmp	r2, r3
 80016ec:	d09e      	beq.n	800162c <HAL_RCC_ClockConfig+0x24>
 80016ee:	f7ff fc47 	bl	8000f80 <HAL_GetTick>
 80016f2:	9b01      	ldr	r3, [sp, #4]
 80016f4:	1ac0      	subs	r0, r0, r3
 80016f6:	4b16      	ldr	r3, [pc, #88]	@ (8001750 <HAL_RCC_ClockConfig+0x148>)
 80016f8:	4298      	cmp	r0, r3
 80016fa:	d9f1      	bls.n	80016e0 <HAL_RCC_ClockConfig+0xd8>
 80016fc:	e7ce      	b.n	800169c <HAL_RCC_ClockConfig+0x94>
 80016fe:	2a00      	cmp	r2, #0
 8001700:	d103      	bne.n	800170a <HAL_RCC_ClockConfig+0x102>
 8001702:	683b      	ldr	r3, [r7, #0]
 8001704:	055b      	lsls	r3, r3, #21
 8001706:	d4e3      	bmi.n	80016d0 <HAL_RCC_ClockConfig+0xc8>
 8001708:	e783      	b.n	8001612 <HAL_RCC_ClockConfig+0xa>
 800170a:	2302      	movs	r3, #2
 800170c:	2a03      	cmp	r2, #3
 800170e:	d103      	bne.n	8001718 <HAL_RCC_ClockConfig+0x110>
 8001710:	6e39      	ldr	r1, [r7, #96]	@ 0x60
 8001712:	4219      	tst	r1, r3
 8001714:	d1dc      	bne.n	80016d0 <HAL_RCC_ClockConfig+0xc8>
 8001716:	e77c      	b.n	8001612 <HAL_RCC_ClockConfig+0xa>
 8001718:	6df9      	ldr	r1, [r7, #92]	@ 0x5c
 800171a:	e7fa      	b.n	8001712 <HAL_RCC_ClockConfig+0x10a>
 800171c:	f7ff fc30 	bl	8000f80 <HAL_GetTick>
 8001720:	9b01      	ldr	r3, [sp, #4]
 8001722:	1ac0      	subs	r0, r0, r3
 8001724:	4b0a      	ldr	r3, [pc, #40]	@ (8001750 <HAL_RCC_ClockConfig+0x148>)
 8001726:	4298      	cmp	r0, r3
 8001728:	d98c      	bls.n	8001644 <HAL_RCC_ClockConfig+0x3c>
 800172a:	e7b7      	b.n	800169c <HAL_RCC_ClockConfig+0x94>
 800172c:	68ab      	ldr	r3, [r5, #8]
 800172e:	4a0b      	ldr	r2, [pc, #44]	@ (800175c <HAL_RCC_ClockConfig+0x154>)
 8001730:	4013      	ands	r3, r2
 8001732:	6922      	ldr	r2, [r4, #16]
 8001734:	4313      	orrs	r3, r2
 8001736:	60ab      	str	r3, [r5, #8]
 8001738:	e78c      	b.n	8001654 <HAL_RCC_ClockConfig+0x4c>
 800173a:	46c0      	nop			@ (mov r8, r8)
 800173c:	40022000 	.word	0x40022000
 8001740:	40021000 	.word	0x40021000
 8001744:	08002c30 	.word	0x08002c30
 8001748:	20000024 	.word	0x20000024
 800174c:	2000002c 	.word	0x2000002c
 8001750:	00001388 	.word	0x00001388
 8001754:	ffff84ff 	.word	0xffff84ff
 8001758:	fffff0ff 	.word	0xfffff0ff
 800175c:	ffff8fff 	.word	0xffff8fff

08001760 <HAL_RCC_GetHCLKFreq>:
 8001760:	b510      	push	{r4, lr}
 8001762:	f7ff ff2b 	bl	80015bc <HAL_RCC_GetSysClockFreq>
 8001766:	4b06      	ldr	r3, [pc, #24]	@ (8001780 <HAL_RCC_GetHCLKFreq+0x20>)
 8001768:	4a06      	ldr	r2, [pc, #24]	@ (8001784 <HAL_RCC_GetHCLKFreq+0x24>)
 800176a:	689b      	ldr	r3, [r3, #8]
 800176c:	051b      	lsls	r3, r3, #20
 800176e:	0f1b      	lsrs	r3, r3, #28
 8001770:	009b      	lsls	r3, r3, #2
 8001772:	589b      	ldr	r3, [r3, r2]
 8001774:	221f      	movs	r2, #31
 8001776:	4013      	ands	r3, r2
 8001778:	40d8      	lsrs	r0, r3
 800177a:	4b03      	ldr	r3, [pc, #12]	@ (8001788 <HAL_RCC_GetHCLKFreq+0x28>)
 800177c:	6018      	str	r0, [r3, #0]
 800177e:	bd10      	pop	{r4, pc}
 8001780:	40021000 	.word	0x40021000
 8001784:	08002c30 	.word	0x08002c30
 8001788:	20000024 	.word	0x20000024

0800178c <HAL_RCC_GetPCLK1Freq>:
 800178c:	b510      	push	{r4, lr}
 800178e:	f7ff ffe7 	bl	8001760 <HAL_RCC_GetHCLKFreq>
 8001792:	4b05      	ldr	r3, [pc, #20]	@ (80017a8 <HAL_RCC_GetPCLK1Freq+0x1c>)
 8001794:	4a05      	ldr	r2, [pc, #20]	@ (80017ac <HAL_RCC_GetPCLK1Freq+0x20>)
 8001796:	689b      	ldr	r3, [r3, #8]
 8001798:	045b      	lsls	r3, r3, #17
 800179a:	0f5b      	lsrs	r3, r3, #29
 800179c:	009b      	lsls	r3, r3, #2
 800179e:	589b      	ldr	r3, [r3, r2]
 80017a0:	221f      	movs	r2, #31
 80017a2:	4013      	ands	r3, r2
 80017a4:	40d8      	lsrs	r0, r3
 80017a6:	bd10      	pop	{r4, pc}
 80017a8:	40021000 	.word	0x40021000
 80017ac:	08002c10 	.word	0x08002c10

080017b0 <TIM_OC1_SetConfig>:
 80017b0:	b570      	push	{r4, r5, r6, lr}
 80017b2:	2401      	movs	r4, #1
 80017b4:	6a03      	ldr	r3, [r0, #32]
 80017b6:	6a02      	ldr	r2, [r0, #32]
 80017b8:	43a2      	bics	r2, r4
 80017ba:	6202      	str	r2, [r0, #32]
 80017bc:	6844      	ldr	r4, [r0, #4]
 80017be:	4a12      	ldr	r2, [pc, #72]	@ (8001808 <TIM_OC1_SetConfig+0x58>)
 80017c0:	6985      	ldr	r5, [r0, #24]
 80017c2:	4015      	ands	r5, r2
 80017c4:	680a      	ldr	r2, [r1, #0]
 80017c6:	4315      	orrs	r5, r2
 80017c8:	2202      	movs	r2, #2
 80017ca:	4393      	bics	r3, r2
 80017cc:	688a      	ldr	r2, [r1, #8]
 80017ce:	4313      	orrs	r3, r2
 80017d0:	4a0e      	ldr	r2, [pc, #56]	@ (800180c <TIM_OC1_SetConfig+0x5c>)
 80017d2:	4290      	cmp	r0, r2
 80017d4:	d005      	beq.n	80017e2 <TIM_OC1_SetConfig+0x32>
 80017d6:	4a0e      	ldr	r2, [pc, #56]	@ (8001810 <TIM_OC1_SetConfig+0x60>)
 80017d8:	4290      	cmp	r0, r2
 80017da:	d002      	beq.n	80017e2 <TIM_OC1_SetConfig+0x32>
 80017dc:	4a0d      	ldr	r2, [pc, #52]	@ (8001814 <TIM_OC1_SetConfig+0x64>)
 80017de:	4290      	cmp	r0, r2
 80017e0:	d10b      	bne.n	80017fa <TIM_OC1_SetConfig+0x4a>
 80017e2:	2208      	movs	r2, #8
 80017e4:	4393      	bics	r3, r2
 80017e6:	68ca      	ldr	r2, [r1, #12]
 80017e8:	698e      	ldr	r6, [r1, #24]
 80017ea:	4313      	orrs	r3, r2
 80017ec:	2204      	movs	r2, #4
 80017ee:	4393      	bics	r3, r2
 80017f0:	4a09      	ldr	r2, [pc, #36]	@ (8001818 <TIM_OC1_SetConfig+0x68>)
 80017f2:	4022      	ands	r2, r4
 80017f4:	694c      	ldr	r4, [r1, #20]
 80017f6:	4334      	orrs	r4, r6
 80017f8:	4314      	orrs	r4, r2
 80017fa:	684a      	ldr	r2, [r1, #4]
 80017fc:	6044      	str	r4, [r0, #4]
 80017fe:	6185      	str	r5, [r0, #24]
 8001800:	6342      	str	r2, [r0, #52]	@ 0x34
 8001802:	6203      	str	r3, [r0, #32]
 8001804:	bd70      	pop	{r4, r5, r6, pc}
 8001806:	46c0      	nop			@ (mov r8, r8)
 8001808:	fffeff8c 	.word	0xfffeff8c
 800180c:	40012c00 	.word	0x40012c00
 8001810:	40014400 	.word	0x40014400
 8001814:	40014800 	.word	0x40014800
 8001818:	fffffcff 	.word	0xfffffcff

0800181c <TIM_OC3_SetConfig>:
 800181c:	b570      	push	{r4, r5, r6, lr}
 800181e:	4a17      	ldr	r2, [pc, #92]	@ (800187c <TIM_OC3_SetConfig+0x60>)
 8001820:	6a05      	ldr	r5, [r0, #32]
 8001822:	6a03      	ldr	r3, [r0, #32]
 8001824:	4013      	ands	r3, r2
 8001826:	6203      	str	r3, [r0, #32]
 8001828:	6842      	ldr	r2, [r0, #4]
 800182a:	4b15      	ldr	r3, [pc, #84]	@ (8001880 <TIM_OC3_SetConfig+0x64>)
 800182c:	69c4      	ldr	r4, [r0, #28]
 800182e:	401c      	ands	r4, r3
 8001830:	680b      	ldr	r3, [r1, #0]
 8001832:	431c      	orrs	r4, r3
 8001834:	4b13      	ldr	r3, [pc, #76]	@ (8001884 <TIM_OC3_SetConfig+0x68>)
 8001836:	401d      	ands	r5, r3
 8001838:	688b      	ldr	r3, [r1, #8]
 800183a:	021b      	lsls	r3, r3, #8
 800183c:	432b      	orrs	r3, r5
 800183e:	4d12      	ldr	r5, [pc, #72]	@ (8001888 <TIM_OC3_SetConfig+0x6c>)
 8001840:	42a8      	cmp	r0, r5
 8001842:	d10e      	bne.n	8001862 <TIM_OC3_SetConfig+0x46>
 8001844:	4d11      	ldr	r5, [pc, #68]	@ (800188c <TIM_OC3_SetConfig+0x70>)
 8001846:	401d      	ands	r5, r3
 8001848:	68cb      	ldr	r3, [r1, #12]
 800184a:	021b      	lsls	r3, r3, #8
 800184c:	432b      	orrs	r3, r5
 800184e:	4d10      	ldr	r5, [pc, #64]	@ (8001890 <TIM_OC3_SetConfig+0x74>)
 8001850:	402b      	ands	r3, r5
 8001852:	4d10      	ldr	r5, [pc, #64]	@ (8001894 <TIM_OC3_SetConfig+0x78>)
 8001854:	698e      	ldr	r6, [r1, #24]
 8001856:	4015      	ands	r5, r2
 8001858:	694a      	ldr	r2, [r1, #20]
 800185a:	4332      	orrs	r2, r6
 800185c:	0112      	lsls	r2, r2, #4
 800185e:	432a      	orrs	r2, r5
 8001860:	e005      	b.n	800186e <TIM_OC3_SetConfig+0x52>
 8001862:	4d0d      	ldr	r5, [pc, #52]	@ (8001898 <TIM_OC3_SetConfig+0x7c>)
 8001864:	42a8      	cmp	r0, r5
 8001866:	d0f4      	beq.n	8001852 <TIM_OC3_SetConfig+0x36>
 8001868:	4d0c      	ldr	r5, [pc, #48]	@ (800189c <TIM_OC3_SetConfig+0x80>)
 800186a:	42a8      	cmp	r0, r5
 800186c:	d0f1      	beq.n	8001852 <TIM_OC3_SetConfig+0x36>
 800186e:	6042      	str	r2, [r0, #4]
 8001870:	684a      	ldr	r2, [r1, #4]
 8001872:	61c4      	str	r4, [r0, #28]
 8001874:	63c2      	str	r2, [r0, #60]	@ 0x3c
 8001876:	6203      	str	r3, [r0, #32]
 8001878:	bd70      	pop	{r4, r5, r6, pc}
 800187a:	46c0      	nop			@ (mov r8, r8)
 800187c:	fffffeff 	.word	0xfffffeff
 8001880:	fffeff8c 	.word	0xfffeff8c
 8001884:	fffffdff 	.word	0xfffffdff
 8001888:	40012c00 	.word	0x40012c00
 800188c:	fffff7ff 	.word	0xfffff7ff
 8001890:	fffffbff 	.word	0xfffffbff
 8001894:	ffffcfff 	.word	0xffffcfff
 8001898:	40014400 	.word	0x40014400
 800189c:	40014800 	.word	0x40014800

080018a0 <TIM_OC4_SetConfig>:
 80018a0:	b530      	push	{r4, r5, lr}
 80018a2:	4a12      	ldr	r2, [pc, #72]	@ (80018ec <TIM_OC4_SetConfig+0x4c>)
 80018a4:	6a04      	ldr	r4, [r0, #32]
 80018a6:	6a03      	ldr	r3, [r0, #32]
 80018a8:	4d11      	ldr	r5, [pc, #68]	@ (80018f0 <TIM_OC4_SetConfig+0x50>)
 80018aa:	4013      	ands	r3, r2
 80018ac:	6203      	str	r3, [r0, #32]
 80018ae:	6843      	ldr	r3, [r0, #4]
 80018b0:	69c2      	ldr	r2, [r0, #28]
 80018b2:	402a      	ands	r2, r5
 80018b4:	680d      	ldr	r5, [r1, #0]
 80018b6:	022d      	lsls	r5, r5, #8
 80018b8:	4315      	orrs	r5, r2
 80018ba:	4a0e      	ldr	r2, [pc, #56]	@ (80018f4 <TIM_OC4_SetConfig+0x54>)
 80018bc:	4014      	ands	r4, r2
 80018be:	688a      	ldr	r2, [r1, #8]
 80018c0:	0312      	lsls	r2, r2, #12
 80018c2:	4322      	orrs	r2, r4
 80018c4:	4c0c      	ldr	r4, [pc, #48]	@ (80018f8 <TIM_OC4_SetConfig+0x58>)
 80018c6:	42a0      	cmp	r0, r4
 80018c8:	d005      	beq.n	80018d6 <TIM_OC4_SetConfig+0x36>
 80018ca:	4c0c      	ldr	r4, [pc, #48]	@ (80018fc <TIM_OC4_SetConfig+0x5c>)
 80018cc:	42a0      	cmp	r0, r4
 80018ce:	d002      	beq.n	80018d6 <TIM_OC4_SetConfig+0x36>
 80018d0:	4c0b      	ldr	r4, [pc, #44]	@ (8001900 <TIM_OC4_SetConfig+0x60>)
 80018d2:	42a0      	cmp	r0, r4
 80018d4:	d104      	bne.n	80018e0 <TIM_OC4_SetConfig+0x40>
 80018d6:	4c0b      	ldr	r4, [pc, #44]	@ (8001904 <TIM_OC4_SetConfig+0x64>)
 80018d8:	401c      	ands	r4, r3
 80018da:	694b      	ldr	r3, [r1, #20]
 80018dc:	019b      	lsls	r3, r3, #6
 80018de:	4323      	orrs	r3, r4
 80018e0:	6043      	str	r3, [r0, #4]
 80018e2:	684b      	ldr	r3, [r1, #4]
 80018e4:	61c5      	str	r5, [r0, #28]
 80018e6:	6403      	str	r3, [r0, #64]	@ 0x40
 80018e8:	6202      	str	r2, [r0, #32]
 80018ea:	bd30      	pop	{r4, r5, pc}
 80018ec:	ffffefff 	.word	0xffffefff
 80018f0:	feff8cff 	.word	0xfeff8cff
 80018f4:	ffffdfff 	.word	0xffffdfff
 80018f8:	40012c00 	.word	0x40012c00
 80018fc:	40014400 	.word	0x40014400
 8001900:	40014800 	.word	0x40014800
 8001904:	ffffbfff 	.word	0xffffbfff

08001908 <TIM_OC5_SetConfig>:
 8001908:	b570      	push	{r4, r5, r6, lr}
 800190a:	6a06      	ldr	r6, [r0, #32]
 800190c:	4c10      	ldr	r4, [pc, #64]	@ (8001950 <TIM_OC5_SetConfig+0x48>)
 800190e:	6a03      	ldr	r3, [r0, #32]
 8001910:	4a10      	ldr	r2, [pc, #64]	@ (8001954 <TIM_OC5_SetConfig+0x4c>)
 8001912:	4023      	ands	r3, r4
 8001914:	6203      	str	r3, [r0, #32]
 8001916:	6843      	ldr	r3, [r0, #4]
 8001918:	6d45      	ldr	r5, [r0, #84]	@ 0x54
 800191a:	4015      	ands	r5, r2
 800191c:	680a      	ldr	r2, [r1, #0]
 800191e:	4315      	orrs	r5, r2
 8001920:	4a0d      	ldr	r2, [pc, #52]	@ (8001958 <TIM_OC5_SetConfig+0x50>)
 8001922:	4016      	ands	r6, r2
 8001924:	688a      	ldr	r2, [r1, #8]
 8001926:	0412      	lsls	r2, r2, #16
 8001928:	4332      	orrs	r2, r6
 800192a:	4e0c      	ldr	r6, [pc, #48]	@ (800195c <TIM_OC5_SetConfig+0x54>)
 800192c:	42b0      	cmp	r0, r6
 800192e:	d005      	beq.n	800193c <TIM_OC5_SetConfig+0x34>
 8001930:	4e0b      	ldr	r6, [pc, #44]	@ (8001960 <TIM_OC5_SetConfig+0x58>)
 8001932:	42b0      	cmp	r0, r6
 8001934:	d002      	beq.n	800193c <TIM_OC5_SetConfig+0x34>
 8001936:	4e0b      	ldr	r6, [pc, #44]	@ (8001964 <TIM_OC5_SetConfig+0x5c>)
 8001938:	42b0      	cmp	r0, r6
 800193a:	d103      	bne.n	8001944 <TIM_OC5_SetConfig+0x3c>
 800193c:	401c      	ands	r4, r3
 800193e:	694b      	ldr	r3, [r1, #20]
 8001940:	021b      	lsls	r3, r3, #8
 8001942:	4323      	orrs	r3, r4
 8001944:	6043      	str	r3, [r0, #4]
 8001946:	684b      	ldr	r3, [r1, #4]
 8001948:	6545      	str	r5, [r0, #84]	@ 0x54
 800194a:	6583      	str	r3, [r0, #88]	@ 0x58
 800194c:	6202      	str	r2, [r0, #32]
 800194e:	bd70      	pop	{r4, r5, r6, pc}
 8001950:	fffeffff 	.word	0xfffeffff
 8001954:	fffeff8f 	.word	0xfffeff8f
 8001958:	fffdffff 	.word	0xfffdffff
 800195c:	40012c00 	.word	0x40012c00
 8001960:	40014400 	.word	0x40014400
 8001964:	40014800 	.word	0x40014800

08001968 <TIM_OC6_SetConfig>:
 8001968:	b530      	push	{r4, r5, lr}
 800196a:	4a12      	ldr	r2, [pc, #72]	@ (80019b4 <TIM_OC6_SetConfig+0x4c>)
 800196c:	6a04      	ldr	r4, [r0, #32]
 800196e:	6a03      	ldr	r3, [r0, #32]
 8001970:	4d11      	ldr	r5, [pc, #68]	@ (80019b8 <TIM_OC6_SetConfig+0x50>)
 8001972:	4013      	ands	r3, r2
 8001974:	6203      	str	r3, [r0, #32]
 8001976:	6843      	ldr	r3, [r0, #4]
 8001978:	6d42      	ldr	r2, [r0, #84]	@ 0x54
 800197a:	402a      	ands	r2, r5
 800197c:	680d      	ldr	r5, [r1, #0]
 800197e:	022d      	lsls	r5, r5, #8
 8001980:	4315      	orrs	r5, r2
 8001982:	4a0e      	ldr	r2, [pc, #56]	@ (80019bc <TIM_OC6_SetConfig+0x54>)
 8001984:	4014      	ands	r4, r2
 8001986:	688a      	ldr	r2, [r1, #8]
 8001988:	0512      	lsls	r2, r2, #20
 800198a:	4322      	orrs	r2, r4
 800198c:	4c0c      	ldr	r4, [pc, #48]	@ (80019c0 <TIM_OC6_SetConfig+0x58>)
 800198e:	42a0      	cmp	r0, r4
 8001990:	d005      	beq.n	800199e <TIM_OC6_SetConfig+0x36>
 8001992:	4c0c      	ldr	r4, [pc, #48]	@ (80019c4 <TIM_OC6_SetConfig+0x5c>)
 8001994:	42a0      	cmp	r0, r4
 8001996:	d002      	beq.n	800199e <TIM_OC6_SetConfig+0x36>
 8001998:	4c0b      	ldr	r4, [pc, #44]	@ (80019c8 <TIM_OC6_SetConfig+0x60>)
 800199a:	42a0      	cmp	r0, r4
 800199c:	d104      	bne.n	80019a8 <TIM_OC6_SetConfig+0x40>
 800199e:	4c0b      	ldr	r4, [pc, #44]	@ (80019cc <TIM_OC6_SetConfig+0x64>)
 80019a0:	401c      	ands	r4, r3
 80019a2:	694b      	ldr	r3, [r1, #20]
 80019a4:	029b      	lsls	r3, r3, #10
 80019a6:	4323      	orrs	r3, r4
 80019a8:	6043      	str	r3, [r0, #4]
 80019aa:	684b      	ldr	r3, [r1, #4]
 80019ac:	6545      	str	r5, [r0, #84]	@ 0x54
 80019ae:	65c3      	str	r3, [r0, #92]	@ 0x5c
 80019b0:	6202      	str	r2, [r0, #32]
 80019b2:	bd30      	pop	{r4, r5, pc}
 80019b4:	ffefffff 	.word	0xffefffff
 80019b8:	feff8fff 	.word	0xfeff8fff
 80019bc:	ffdfffff 	.word	0xffdfffff
 80019c0:	40012c00 	.word	0x40012c00
 80019c4:	40014400 	.word	0x40014400
 80019c8:	40014800 	.word	0x40014800
 80019cc:	fffbffff 	.word	0xfffbffff

080019d0 <HAL_TIM_PWM_MspInit>:
 80019d0:	4770      	bx	lr
	...

080019d4 <TIM_Base_SetConfig>:
 80019d4:	b510      	push	{r4, lr}
 80019d6:	4c1a      	ldr	r4, [pc, #104]	@ (8001a40 <TIM_Base_SetConfig+0x6c>)
 80019d8:	6803      	ldr	r3, [r0, #0]
 80019da:	42a0      	cmp	r0, r4
 80019dc:	d00a      	beq.n	80019f4 <TIM_Base_SetConfig+0x20>
 80019de:	4a19      	ldr	r2, [pc, #100]	@ (8001a44 <TIM_Base_SetConfig+0x70>)
 80019e0:	4290      	cmp	r0, r2
 80019e2:	d007      	beq.n	80019f4 <TIM_Base_SetConfig+0x20>
 80019e4:	4a18      	ldr	r2, [pc, #96]	@ (8001a48 <TIM_Base_SetConfig+0x74>)
 80019e6:	4290      	cmp	r0, r2
 80019e8:	d109      	bne.n	80019fe <TIM_Base_SetConfig+0x2a>
 80019ea:	4a18      	ldr	r2, [pc, #96]	@ (8001a4c <TIM_Base_SetConfig+0x78>)
 80019ec:	401a      	ands	r2, r3
 80019ee:	68cb      	ldr	r3, [r1, #12]
 80019f0:	4313      	orrs	r3, r2
 80019f2:	e00a      	b.n	8001a0a <TIM_Base_SetConfig+0x36>
 80019f4:	2270      	movs	r2, #112	@ 0x70
 80019f6:	4393      	bics	r3, r2
 80019f8:	684a      	ldr	r2, [r1, #4]
 80019fa:	4313      	orrs	r3, r2
 80019fc:	e7f5      	b.n	80019ea <TIM_Base_SetConfig+0x16>
 80019fe:	4a14      	ldr	r2, [pc, #80]	@ (8001a50 <TIM_Base_SetConfig+0x7c>)
 8001a00:	4290      	cmp	r0, r2
 8001a02:	d0f2      	beq.n	80019ea <TIM_Base_SetConfig+0x16>
 8001a04:	4a13      	ldr	r2, [pc, #76]	@ (8001a54 <TIM_Base_SetConfig+0x80>)
 8001a06:	4290      	cmp	r0, r2
 8001a08:	d0ef      	beq.n	80019ea <TIM_Base_SetConfig+0x16>
 8001a0a:	2280      	movs	r2, #128	@ 0x80
 8001a0c:	4393      	bics	r3, r2
 8001a0e:	694a      	ldr	r2, [r1, #20]
 8001a10:	4313      	orrs	r3, r2
 8001a12:	688a      	ldr	r2, [r1, #8]
 8001a14:	62c2      	str	r2, [r0, #44]	@ 0x2c
 8001a16:	680a      	ldr	r2, [r1, #0]
 8001a18:	6282      	str	r2, [r0, #40]	@ 0x28
 8001a1a:	42a0      	cmp	r0, r4
 8001a1c:	d005      	beq.n	8001a2a <TIM_Base_SetConfig+0x56>
 8001a1e:	4a0c      	ldr	r2, [pc, #48]	@ (8001a50 <TIM_Base_SetConfig+0x7c>)
 8001a20:	4290      	cmp	r0, r2
 8001a22:	d002      	beq.n	8001a2a <TIM_Base_SetConfig+0x56>
 8001a24:	4a0b      	ldr	r2, [pc, #44]	@ (8001a54 <TIM_Base_SetConfig+0x80>)
 8001a26:	4290      	cmp	r0, r2
 8001a28:	d101      	bne.n	8001a2e <TIM_Base_SetConfig+0x5a>
 8001a2a:	690a      	ldr	r2, [r1, #16]
 8001a2c:	6302      	str	r2, [r0, #48]	@ 0x30
 8001a2e:	2204      	movs	r2, #4
 8001a30:	6801      	ldr	r1, [r0, #0]
 8001a32:	430a      	orrs	r2, r1
 8001a34:	6002      	str	r2, [r0, #0]
 8001a36:	2201      	movs	r2, #1
 8001a38:	6142      	str	r2, [r0, #20]
 8001a3a:	6003      	str	r3, [r0, #0]
 8001a3c:	bd10      	pop	{r4, pc}
 8001a3e:	46c0      	nop			@ (mov r8, r8)
 8001a40:	40012c00 	.word	0x40012c00
 8001a44:	40000400 	.word	0x40000400
 8001a48:	40002000 	.word	0x40002000
 8001a4c:	fffffcff 	.word	0xfffffcff
 8001a50:	40014400 	.word	0x40014400
 8001a54:	40014800 	.word	0x40014800

08001a58 <HAL_TIM_Base_Init>:
 8001a58:	b570      	push	{r4, r5, r6, lr}
 8001a5a:	0004      	movs	r4, r0
 8001a5c:	2001      	movs	r0, #1
 8001a5e:	2c00      	cmp	r4, #0
 8001a60:	d023      	beq.n	8001aaa <HAL_TIM_Base_Init+0x52>
 8001a62:	0025      	movs	r5, r4
 8001a64:	353d      	adds	r5, #61	@ 0x3d
 8001a66:	782b      	ldrb	r3, [r5, #0]
 8001a68:	b2da      	uxtb	r2, r3
 8001a6a:	2b00      	cmp	r3, #0
 8001a6c:	d105      	bne.n	8001a7a <HAL_TIM_Base_Init+0x22>
 8001a6e:	0023      	movs	r3, r4
 8001a70:	333c      	adds	r3, #60	@ 0x3c
 8001a72:	0020      	movs	r0, r4
 8001a74:	701a      	strb	r2, [r3, #0]
 8001a76:	f7ff f989 	bl	8000d8c <HAL_TIM_Base_MspInit>
 8001a7a:	2302      	movs	r3, #2
 8001a7c:	702b      	strb	r3, [r5, #0]
 8001a7e:	6820      	ldr	r0, [r4, #0]
 8001a80:	1d21      	adds	r1, r4, #4
 8001a82:	f7ff ffa7 	bl	80019d4 <TIM_Base_SetConfig>
 8001a86:	0022      	movs	r2, r4
 8001a88:	2301      	movs	r3, #1
 8001a8a:	2000      	movs	r0, #0
 8001a8c:	3248      	adds	r2, #72	@ 0x48
 8001a8e:	7013      	strb	r3, [r2, #0]
 8001a90:	3447      	adds	r4, #71	@ 0x47
 8001a92:	3a0a      	subs	r2, #10
 8001a94:	7013      	strb	r3, [r2, #0]
 8001a96:	7053      	strb	r3, [r2, #1]
 8001a98:	7093      	strb	r3, [r2, #2]
 8001a9a:	70d3      	strb	r3, [r2, #3]
 8001a9c:	7113      	strb	r3, [r2, #4]
 8001a9e:	7153      	strb	r3, [r2, #5]
 8001aa0:	7193      	strb	r3, [r2, #6]
 8001aa2:	71d3      	strb	r3, [r2, #7]
 8001aa4:	7213      	strb	r3, [r2, #8]
 8001aa6:	7023      	strb	r3, [r4, #0]
 8001aa8:	702b      	strb	r3, [r5, #0]
 8001aaa:	bd70      	pop	{r4, r5, r6, pc}

08001aac <HAL_TIM_PWM_Init>:
 8001aac:	b570      	push	{r4, r5, r6, lr}
 8001aae:	0004      	movs	r4, r0
 8001ab0:	2001      	movs	r0, #1
 8001ab2:	2c00      	cmp	r4, #0
 8001ab4:	d023      	beq.n	8001afe <HAL_TIM_PWM_Init+0x52>
 8001ab6:	0025      	movs	r5, r4
 8001ab8:	353d      	adds	r5, #61	@ 0x3d
 8001aba:	782b      	ldrb	r3, [r5, #0]
 8001abc:	b2da      	uxtb	r2, r3
 8001abe:	2b00      	cmp	r3, #0
 8001ac0:	d105      	bne.n	8001ace <HAL_TIM_PWM_Init+0x22>
 8001ac2:	0023      	movs	r3, r4
 8001ac4:	333c      	adds	r3, #60	@ 0x3c
 8001ac6:	0020      	movs	r0, r4
 8001ac8:	701a      	strb	r2, [r3, #0]
 8001aca:	f7ff ff81 	bl	80019d0 <HAL_TIM_PWM_MspInit>
 8001ace:	2302      	movs	r3, #2
 8001ad0:	702b      	strb	r3, [r5, #0]
 8001ad2:	6820      	ldr	r0, [r4, #0]
 8001ad4:	1d21      	adds	r1, r4, #4
 8001ad6:	f7ff ff7d 	bl	80019d4 <TIM_Base_SetConfig>
 8001ada:	0022      	movs	r2, r4
 8001adc:	2301      	movs	r3, #1
 8001ade:	2000      	movs	r0, #0
 8001ae0:	3248      	adds	r2, #72	@ 0x48
 8001ae2:	7013      	strb	r3, [r2, #0]
 8001ae4:	3447      	adds	r4, #71	@ 0x47
 8001ae6:	3a0a      	subs	r2, #10
 8001ae8:	7013      	strb	r3, [r2, #0]
 8001aea:	7053      	strb	r3, [r2, #1]
 8001aec:	7093      	strb	r3, [r2, #2]
 8001aee:	70d3      	strb	r3, [r2, #3]
 8001af0:	7113      	strb	r3, [r2, #4]
 8001af2:	7153      	strb	r3, [r2, #5]
 8001af4:	7193      	strb	r3, [r2, #6]
 8001af6:	71d3      	strb	r3, [r2, #7]
 8001af8:	7213      	strb	r3, [r2, #8]
 8001afa:	7023      	strb	r3, [r4, #0]
 8001afc:	702b      	strb	r3, [r5, #0]
 8001afe:	bd70      	pop	{r4, r5, r6, pc}

08001b00 <TIM_OC2_SetConfig>:
 8001b00:	2210      	movs	r2, #16
 8001b02:	b570      	push	{r4, r5, r6, lr}
 8001b04:	6a05      	ldr	r5, [r0, #32]
 8001b06:	6a03      	ldr	r3, [r0, #32]
 8001b08:	4c16      	ldr	r4, [pc, #88]	@ (8001b64 <TIM_OC2_SetConfig+0x64>)
 8001b0a:	4393      	bics	r3, r2
 8001b0c:	6203      	str	r3, [r0, #32]
 8001b0e:	6842      	ldr	r2, [r0, #4]
 8001b10:	6983      	ldr	r3, [r0, #24]
 8001b12:	4023      	ands	r3, r4
 8001b14:	680c      	ldr	r4, [r1, #0]
 8001b16:	0224      	lsls	r4, r4, #8
 8001b18:	431c      	orrs	r4, r3
 8001b1a:	2320      	movs	r3, #32
 8001b1c:	439d      	bics	r5, r3
 8001b1e:	688b      	ldr	r3, [r1, #8]
 8001b20:	011b      	lsls	r3, r3, #4
 8001b22:	432b      	orrs	r3, r5
 8001b24:	4d10      	ldr	r5, [pc, #64]	@ (8001b68 <TIM_OC2_SetConfig+0x68>)
 8001b26:	42a8      	cmp	r0, r5
 8001b28:	d10f      	bne.n	8001b4a <TIM_OC2_SetConfig+0x4a>
 8001b2a:	2580      	movs	r5, #128	@ 0x80
 8001b2c:	43ab      	bics	r3, r5
 8001b2e:	001e      	movs	r6, r3
 8001b30:	68cb      	ldr	r3, [r1, #12]
 8001b32:	3d40      	subs	r5, #64	@ 0x40
 8001b34:	011b      	lsls	r3, r3, #4
 8001b36:	4333      	orrs	r3, r6
 8001b38:	43ab      	bics	r3, r5
 8001b3a:	4d0c      	ldr	r5, [pc, #48]	@ (8001b6c <TIM_OC2_SetConfig+0x6c>)
 8001b3c:	698e      	ldr	r6, [r1, #24]
 8001b3e:	4015      	ands	r5, r2
 8001b40:	694a      	ldr	r2, [r1, #20]
 8001b42:	4332      	orrs	r2, r6
 8001b44:	0092      	lsls	r2, r2, #2
 8001b46:	432a      	orrs	r2, r5
 8001b48:	e005      	b.n	8001b56 <TIM_OC2_SetConfig+0x56>
 8001b4a:	4d09      	ldr	r5, [pc, #36]	@ (8001b70 <TIM_OC2_SetConfig+0x70>)
 8001b4c:	42a8      	cmp	r0, r5
 8001b4e:	d0f4      	beq.n	8001b3a <TIM_OC2_SetConfig+0x3a>
 8001b50:	4d08      	ldr	r5, [pc, #32]	@ (8001b74 <TIM_OC2_SetConfig+0x74>)
 8001b52:	42a8      	cmp	r0, r5
 8001b54:	d0f1      	beq.n	8001b3a <TIM_OC2_SetConfig+0x3a>
 8001b56:	6042      	str	r2, [r0, #4]
 8001b58:	684a      	ldr	r2, [r1, #4]
 8001b5a:	6184      	str	r4, [r0, #24]
 8001b5c:	6382      	str	r2, [r0, #56]	@ 0x38
 8001b5e:	6203      	str	r3, [r0, #32]
 8001b60:	bd70      	pop	{r4, r5, r6, pc}
 8001b62:	46c0      	nop			@ (mov r8, r8)
 8001b64:	feff8cff 	.word	0xfeff8cff
 8001b68:	40012c00 	.word	0x40012c00
 8001b6c:	fffff3ff 	.word	0xfffff3ff
 8001b70:	40014400 	.word	0x40014400
 8001b74:	40014800 	.word	0x40014800

08001b78 <HAL_TIM_PWM_ConfigChannel>:
 8001b78:	b5f8      	push	{r3, r4, r5, r6, r7, lr}
 8001b7a:	0007      	movs	r7, r0
 8001b7c:	373c      	adds	r7, #60	@ 0x3c
 8001b7e:	0015      	movs	r5, r2
 8001b80:	783a      	ldrb	r2, [r7, #0]
 8001b82:	0003      	movs	r3, r0
 8001b84:	000c      	movs	r4, r1
 8001b86:	2002      	movs	r0, #2
 8001b88:	2a01      	cmp	r2, #1
 8001b8a:	d00c      	beq.n	8001ba6 <HAL_TIM_PWM_ConfigChannel+0x2e>
 8001b8c:	3801      	subs	r0, #1
 8001b8e:	7038      	strb	r0, [r7, #0]
 8001b90:	2d0c      	cmp	r5, #12
 8001b92:	d051      	beq.n	8001c38 <HAL_TIM_PWM_ConfigChannel+0xc0>
 8001b94:	d808      	bhi.n	8001ba8 <HAL_TIM_PWM_ConfigChannel+0x30>
 8001b96:	2d04      	cmp	r5, #4
 8001b98:	d02d      	beq.n	8001bf6 <HAL_TIM_PWM_ConfigChannel+0x7e>
 8001b9a:	2d08      	cmp	r5, #8
 8001b9c:	d03c      	beq.n	8001c18 <HAL_TIM_PWM_ConfigChannel+0xa0>
 8001b9e:	2d00      	cmp	r5, #0
 8001ba0:	d017      	beq.n	8001bd2 <HAL_TIM_PWM_ConfigChannel+0x5a>
 8001ba2:	2300      	movs	r3, #0
 8001ba4:	703b      	strb	r3, [r7, #0]
 8001ba6:	bdf8      	pop	{r3, r4, r5, r6, r7, pc}
 8001ba8:	2d10      	cmp	r5, #16
 8001baa:	d058      	beq.n	8001c5e <HAL_TIM_PWM_ConfigChannel+0xe6>
 8001bac:	2d14      	cmp	r5, #20
 8001bae:	d1f8      	bne.n	8001ba2 <HAL_TIM_PWM_ConfigChannel+0x2a>
 8001bb0:	681d      	ldr	r5, [r3, #0]
 8001bb2:	0028      	movs	r0, r5
 8001bb4:	f7ff fed8 	bl	8001968 <TIM_OC6_SetConfig>
 8001bb8:	2380      	movs	r3, #128	@ 0x80
 8001bba:	6d6a      	ldr	r2, [r5, #84]	@ 0x54
 8001bbc:	011b      	lsls	r3, r3, #4
 8001bbe:	4313      	orrs	r3, r2
 8001bc0:	656b      	str	r3, [r5, #84]	@ 0x54
 8001bc2:	6d6b      	ldr	r3, [r5, #84]	@ 0x54
 8001bc4:	4a2e      	ldr	r2, [pc, #184]	@ (8001c80 <HAL_TIM_PWM_ConfigChannel+0x108>)
 8001bc6:	4013      	ands	r3, r2
 8001bc8:	656b      	str	r3, [r5, #84]	@ 0x54
 8001bca:	6923      	ldr	r3, [r4, #16]
 8001bcc:	6d6a      	ldr	r2, [r5, #84]	@ 0x54
 8001bce:	021b      	lsls	r3, r3, #8
 8001bd0:	e053      	b.n	8001c7a <HAL_TIM_PWM_ConfigChannel+0x102>
 8001bd2:	681d      	ldr	r5, [r3, #0]
 8001bd4:	0028      	movs	r0, r5
 8001bd6:	f7ff fdeb 	bl	80017b0 <TIM_OC1_SetConfig>
 8001bda:	2308      	movs	r3, #8
 8001bdc:	69aa      	ldr	r2, [r5, #24]
 8001bde:	4313      	orrs	r3, r2
 8001be0:	2204      	movs	r2, #4
 8001be2:	61ab      	str	r3, [r5, #24]
 8001be4:	69ab      	ldr	r3, [r5, #24]
 8001be6:	4393      	bics	r3, r2
 8001be8:	61ab      	str	r3, [r5, #24]
 8001bea:	69ab      	ldr	r3, [r5, #24]
 8001bec:	6922      	ldr	r2, [r4, #16]
 8001bee:	4313      	orrs	r3, r2
 8001bf0:	61ab      	str	r3, [r5, #24]
 8001bf2:	2000      	movs	r0, #0
 8001bf4:	e7d5      	b.n	8001ba2 <HAL_TIM_PWM_ConfigChannel+0x2a>
 8001bf6:	681d      	ldr	r5, [r3, #0]
 8001bf8:	0028      	movs	r0, r5
 8001bfa:	f7ff ff81 	bl	8001b00 <TIM_OC2_SetConfig>
 8001bfe:	2380      	movs	r3, #128	@ 0x80
 8001c00:	69aa      	ldr	r2, [r5, #24]
 8001c02:	011b      	lsls	r3, r3, #4
 8001c04:	4313      	orrs	r3, r2
 8001c06:	61ab      	str	r3, [r5, #24]
 8001c08:	69ab      	ldr	r3, [r5, #24]
 8001c0a:	4a1d      	ldr	r2, [pc, #116]	@ (8001c80 <HAL_TIM_PWM_ConfigChannel+0x108>)
 8001c0c:	4013      	ands	r3, r2
 8001c0e:	61ab      	str	r3, [r5, #24]
 8001c10:	6923      	ldr	r3, [r4, #16]
 8001c12:	69aa      	ldr	r2, [r5, #24]
 8001c14:	021b      	lsls	r3, r3, #8
 8001c16:	e7ea      	b.n	8001bee <HAL_TIM_PWM_ConfigChannel+0x76>
 8001c18:	681e      	ldr	r6, [r3, #0]
 8001c1a:	0030      	movs	r0, r6
 8001c1c:	f7ff fdfe 	bl	800181c <TIM_OC3_SetConfig>
 8001c20:	2204      	movs	r2, #4
 8001c22:	69f3      	ldr	r3, [r6, #28]
 8001c24:	431d      	orrs	r5, r3
 8001c26:	61f5      	str	r5, [r6, #28]
 8001c28:	69f3      	ldr	r3, [r6, #28]
 8001c2a:	4393      	bics	r3, r2
 8001c2c:	61f3      	str	r3, [r6, #28]
 8001c2e:	69f3      	ldr	r3, [r6, #28]
 8001c30:	6922      	ldr	r2, [r4, #16]
 8001c32:	4313      	orrs	r3, r2
 8001c34:	61f3      	str	r3, [r6, #28]
 8001c36:	e7dc      	b.n	8001bf2 <HAL_TIM_PWM_ConfigChannel+0x7a>
 8001c38:	681d      	ldr	r5, [r3, #0]
 8001c3a:	0028      	movs	r0, r5
 8001c3c:	f7ff fe30 	bl	80018a0 <TIM_OC4_SetConfig>
 8001c40:	2380      	movs	r3, #128	@ 0x80
 8001c42:	69ea      	ldr	r2, [r5, #28]
 8001c44:	011b      	lsls	r3, r3, #4
 8001c46:	4313      	orrs	r3, r2
 8001c48:	61eb      	str	r3, [r5, #28]
 8001c4a:	69eb      	ldr	r3, [r5, #28]
 8001c4c:	4a0c      	ldr	r2, [pc, #48]	@ (8001c80 <HAL_TIM_PWM_ConfigChannel+0x108>)
 8001c4e:	4013      	ands	r3, r2
 8001c50:	61eb      	str	r3, [r5, #28]
 8001c52:	6923      	ldr	r3, [r4, #16]
 8001c54:	69ea      	ldr	r2, [r5, #28]
 8001c56:	021b      	lsls	r3, r3, #8
 8001c58:	4313      	orrs	r3, r2
 8001c5a:	61eb      	str	r3, [r5, #28]
 8001c5c:	e7c9      	b.n	8001bf2 <HAL_TIM_PWM_ConfigChannel+0x7a>
 8001c5e:	681d      	ldr	r5, [r3, #0]
 8001c60:	0028      	movs	r0, r5
 8001c62:	f7ff fe51 	bl	8001908 <TIM_OC5_SetConfig>
 8001c66:	2308      	movs	r3, #8
 8001c68:	6d6a      	ldr	r2, [r5, #84]	@ 0x54
 8001c6a:	4313      	orrs	r3, r2
 8001c6c:	2204      	movs	r2, #4
 8001c6e:	656b      	str	r3, [r5, #84]	@ 0x54
 8001c70:	6d6b      	ldr	r3, [r5, #84]	@ 0x54
 8001c72:	4393      	bics	r3, r2
 8001c74:	656b      	str	r3, [r5, #84]	@ 0x54
 8001c76:	6d6b      	ldr	r3, [r5, #84]	@ 0x54
 8001c78:	6922      	ldr	r2, [r4, #16]
 8001c7a:	4313      	orrs	r3, r2
 8001c7c:	656b      	str	r3, [r5, #84]	@ 0x54
 8001c7e:	e7b8      	b.n	8001bf2 <HAL_TIM_PWM_ConfigChannel+0x7a>
 8001c80:	fffffbff 	.word	0xfffffbff

08001c84 <TIM_ETR_SetConfig>:
 8001c84:	b530      	push	{r4, r5, lr}
 8001c86:	6884      	ldr	r4, [r0, #8]
 8001c88:	4d03      	ldr	r5, [pc, #12]	@ (8001c98 <TIM_ETR_SetConfig+0x14>)
 8001c8a:	430a      	orrs	r2, r1
 8001c8c:	021b      	lsls	r3, r3, #8
 8001c8e:	402c      	ands	r4, r5
 8001c90:	4313      	orrs	r3, r2
 8001c92:	4323      	orrs	r3, r4
 8001c94:	6083      	str	r3, [r0, #8]
 8001c96:	bd30      	pop	{r4, r5, pc}
 8001c98:	ffff00ff 	.word	0xffff00ff

08001c9c <HAL_TIM_ConfigClockSource>:
 8001c9c:	b5f8      	push	{r3, r4, r5, r6, r7, lr}
 8001c9e:	0005      	movs	r5, r0
 8001ca0:	2202      	movs	r2, #2
 8001ca2:	353c      	adds	r5, #60	@ 0x3c
 8001ca4:	782c      	ldrb	r4, [r5, #0]
 8001ca6:	0003      	movs	r3, r0
 8001ca8:	0010      	movs	r0, r2
 8001caa:	2c01      	cmp	r4, #1
 8001cac:	d01b      	beq.n	8001ce6 <HAL_TIM_ConfigClockSource+0x4a>
 8001cae:	001e      	movs	r6, r3
 8001cb0:	3801      	subs	r0, #1
 8001cb2:	363d      	adds	r6, #61	@ 0x3d
 8001cb4:	7028      	strb	r0, [r5, #0]
 8001cb6:	7032      	strb	r2, [r6, #0]
 8001cb8:	681c      	ldr	r4, [r3, #0]
 8001cba:	4a41      	ldr	r2, [pc, #260]	@ (8001dc0 <HAL_TIM_ConfigClockSource+0x124>)
 8001cbc:	68a3      	ldr	r3, [r4, #8]
 8001cbe:	4013      	ands	r3, r2
 8001cc0:	60a3      	str	r3, [r4, #8]
 8001cc2:	680b      	ldr	r3, [r1, #0]
 8001cc4:	2b60      	cmp	r3, #96	@ 0x60
 8001cc6:	d04e      	beq.n	8001d66 <HAL_TIM_ConfigClockSource+0xca>
 8001cc8:	d82d      	bhi.n	8001d26 <HAL_TIM_ConfigClockSource+0x8a>
 8001cca:	2b40      	cmp	r3, #64	@ 0x40
 8001ccc:	d062      	beq.n	8001d94 <HAL_TIM_ConfigClockSource+0xf8>
 8001cce:	d813      	bhi.n	8001cf8 <HAL_TIM_ConfigClockSource+0x5c>
 8001cd0:	2b20      	cmp	r3, #32
 8001cd2:	d00b      	beq.n	8001cec <HAL_TIM_ConfigClockSource+0x50>
 8001cd4:	d808      	bhi.n	8001ce8 <HAL_TIM_ConfigClockSource+0x4c>
 8001cd6:	2210      	movs	r2, #16
 8001cd8:	0019      	movs	r1, r3
 8001cda:	4391      	bics	r1, r2
 8001cdc:	d006      	beq.n	8001cec <HAL_TIM_ConfigClockSource+0x50>
 8001cde:	2301      	movs	r3, #1
 8001ce0:	7033      	strb	r3, [r6, #0]
 8001ce2:	2300      	movs	r3, #0
 8001ce4:	702b      	strb	r3, [r5, #0]
 8001ce6:	bdf8      	pop	{r3, r4, r5, r6, r7, pc}
 8001ce8:	2b30      	cmp	r3, #48	@ 0x30
 8001cea:	d1f8      	bne.n	8001cde <HAL_TIM_ConfigClockSource+0x42>
 8001cec:	68a2      	ldr	r2, [r4, #8]
 8001cee:	4935      	ldr	r1, [pc, #212]	@ (8001dc4 <HAL_TIM_ConfigClockSource+0x128>)
 8001cf0:	400a      	ands	r2, r1
 8001cf2:	4313      	orrs	r3, r2
 8001cf4:	2207      	movs	r2, #7
 8001cf6:	e028      	b.n	8001d4a <HAL_TIM_ConfigClockSource+0xae>
 8001cf8:	2b50      	cmp	r3, #80	@ 0x50
 8001cfa:	d1f0      	bne.n	8001cde <HAL_TIM_ConfigClockSource+0x42>
 8001cfc:	684a      	ldr	r2, [r1, #4]
 8001cfe:	68cb      	ldr	r3, [r1, #12]
 8001d00:	6a21      	ldr	r1, [r4, #32]
 8001d02:	6a27      	ldr	r7, [r4, #32]
 8001d04:	011b      	lsls	r3, r3, #4
 8001d06:	4387      	bics	r7, r0
 8001d08:	6227      	str	r7, [r4, #32]
 8001d0a:	27f0      	movs	r7, #240	@ 0xf0
 8001d0c:	69a0      	ldr	r0, [r4, #24]
 8001d0e:	43b8      	bics	r0, r7
 8001d10:	4303      	orrs	r3, r0
 8001d12:	200a      	movs	r0, #10
 8001d14:	4381      	bics	r1, r0
 8001d16:	430a      	orrs	r2, r1
 8001d18:	61a3      	str	r3, [r4, #24]
 8001d1a:	6222      	str	r2, [r4, #32]
 8001d1c:	4b29      	ldr	r3, [pc, #164]	@ (8001dc4 <HAL_TIM_ConfigClockSource+0x128>)
 8001d1e:	68a2      	ldr	r2, [r4, #8]
 8001d20:	401a      	ands	r2, r3
 8001d22:	2357      	movs	r3, #87	@ 0x57
 8001d24:	e011      	b.n	8001d4a <HAL_TIM_ConfigClockSource+0xae>
 8001d26:	2280      	movs	r2, #128	@ 0x80
 8001d28:	0152      	lsls	r2, r2, #5
 8001d2a:	4293      	cmp	r3, r2
 8001d2c:	d00f      	beq.n	8001d4e <HAL_TIM_ConfigClockSource+0xb2>
 8001d2e:	2280      	movs	r2, #128	@ 0x80
 8001d30:	0192      	lsls	r2, r2, #6
 8001d32:	4293      	cmp	r3, r2
 8001d34:	d00d      	beq.n	8001d52 <HAL_TIM_ConfigClockSource+0xb6>
 8001d36:	2b70      	cmp	r3, #112	@ 0x70
 8001d38:	d1d1      	bne.n	8001cde <HAL_TIM_ConfigClockSource+0x42>
 8001d3a:	68cb      	ldr	r3, [r1, #12]
 8001d3c:	684a      	ldr	r2, [r1, #4]
 8001d3e:	0020      	movs	r0, r4
 8001d40:	6889      	ldr	r1, [r1, #8]
 8001d42:	f7ff ff9f 	bl	8001c84 <TIM_ETR_SetConfig>
 8001d46:	2377      	movs	r3, #119	@ 0x77
 8001d48:	68a2      	ldr	r2, [r4, #8]
 8001d4a:	4313      	orrs	r3, r2
 8001d4c:	60a3      	str	r3, [r4, #8]
 8001d4e:	2000      	movs	r0, #0
 8001d50:	e7c5      	b.n	8001cde <HAL_TIM_ConfigClockSource+0x42>
 8001d52:	68cb      	ldr	r3, [r1, #12]
 8001d54:	684a      	ldr	r2, [r1, #4]
 8001d56:	0020      	movs	r0, r4
 8001d58:	6889      	ldr	r1, [r1, #8]
 8001d5a:	f7ff ff93 	bl	8001c84 <TIM_ETR_SetConfig>
 8001d5e:	2380      	movs	r3, #128	@ 0x80
 8001d60:	68a2      	ldr	r2, [r4, #8]
 8001d62:	01db      	lsls	r3, r3, #7
 8001d64:	e7f1      	b.n	8001d4a <HAL_TIM_ConfigClockSource+0xae>
 8001d66:	2710      	movs	r7, #16
 8001d68:	684b      	ldr	r3, [r1, #4]
 8001d6a:	68ca      	ldr	r2, [r1, #12]
 8001d6c:	6a21      	ldr	r1, [r4, #32]
 8001d6e:	6a20      	ldr	r0, [r4, #32]
 8001d70:	0312      	lsls	r2, r2, #12
 8001d72:	43b8      	bics	r0, r7
 8001d74:	6220      	str	r0, [r4, #32]
 8001d76:	69a0      	ldr	r0, [r4, #24]
 8001d78:	4f13      	ldr	r7, [pc, #76]	@ (8001dc8 <HAL_TIM_ConfigClockSource+0x12c>)
 8001d7a:	011b      	lsls	r3, r3, #4
 8001d7c:	4038      	ands	r0, r7
 8001d7e:	4302      	orrs	r2, r0
 8001d80:	20a0      	movs	r0, #160	@ 0xa0
 8001d82:	4381      	bics	r1, r0
 8001d84:	430b      	orrs	r3, r1
 8001d86:	61a2      	str	r2, [r4, #24]
 8001d88:	6223      	str	r3, [r4, #32]
 8001d8a:	68a2      	ldr	r2, [r4, #8]
 8001d8c:	4b0d      	ldr	r3, [pc, #52]	@ (8001dc4 <HAL_TIM_ConfigClockSource+0x128>)
 8001d8e:	401a      	ands	r2, r3
 8001d90:	2367      	movs	r3, #103	@ 0x67
 8001d92:	e7da      	b.n	8001d4a <HAL_TIM_ConfigClockSource+0xae>
 8001d94:	684a      	ldr	r2, [r1, #4]
 8001d96:	68cb      	ldr	r3, [r1, #12]
 8001d98:	6a21      	ldr	r1, [r4, #32]
 8001d9a:	6a27      	ldr	r7, [r4, #32]
 8001d9c:	011b      	lsls	r3, r3, #4
 8001d9e:	4387      	bics	r7, r0
 8001da0:	6227      	str	r7, [r4, #32]
 8001da2:	27f0      	movs	r7, #240	@ 0xf0
 8001da4:	69a0      	ldr	r0, [r4, #24]
 8001da6:	43b8      	bics	r0, r7
 8001da8:	4303      	orrs	r3, r0
 8001daa:	200a      	movs	r0, #10
 8001dac:	4381      	bics	r1, r0
 8001dae:	430a      	orrs	r2, r1
 8001db0:	61a3      	str	r3, [r4, #24]
 8001db2:	6222      	str	r2, [r4, #32]
 8001db4:	4b03      	ldr	r3, [pc, #12]	@ (8001dc4 <HAL_TIM_ConfigClockSource+0x128>)
 8001db6:	68a2      	ldr	r2, [r4, #8]
 8001db8:	401a      	ands	r2, r3
 8001dba:	2347      	movs	r3, #71	@ 0x47
 8001dbc:	e7c5      	b.n	8001d4a <HAL_TIM_ConfigClockSource+0xae>
 8001dbe:	46c0      	nop			@ (mov r8, r8)
 8001dc0:	ffce0088 	.word	0xffce0088
 8001dc4:	ffcfff8f 	.word	0xffcfff8f
 8001dc8:	ffff0fff 	.word	0xffff0fff

08001dcc <TIM_CCxChannelCmd>:
 8001dcc:	231f      	movs	r3, #31
 8001dce:	b510      	push	{r4, lr}
 8001dd0:	2401      	movs	r4, #1
 8001dd2:	4019      	ands	r1, r3
 8001dd4:	408c      	lsls	r4, r1
 8001dd6:	408a      	lsls	r2, r1
 8001dd8:	6a03      	ldr	r3, [r0, #32]
 8001dda:	43a3      	bics	r3, r4
 8001ddc:	6203      	str	r3, [r0, #32]
 8001dde:	6a03      	ldr	r3, [r0, #32]
 8001de0:	431a      	orrs	r2, r3
 8001de2:	6202      	str	r2, [r0, #32]
 8001de4:	bd10      	pop	{r4, pc}
	...

08001de8 <HAL_TIM_OC_Start>:
 8001de8:	0002      	movs	r2, r0
 8001dea:	b510      	push	{r4, lr}
 8001dec:	2908      	cmp	r1, #8
 8001dee:	d01c      	beq.n	8001e2a <HAL_TIM_OC_Start+0x42>
 8001df0:	d806      	bhi.n	8001e00 <HAL_TIM_OC_Start+0x18>
 8001df2:	2900      	cmp	r1, #0
 8001df4:	d00b      	beq.n	8001e0e <HAL_TIM_OC_Start+0x26>
 8001df6:	2904      	cmp	r1, #4
 8001df8:	d014      	beq.n	8001e24 <HAL_TIM_OC_Start+0x3c>
 8001dfa:	0013      	movs	r3, r2
 8001dfc:	3343      	adds	r3, #67	@ 0x43
 8001dfe:	e008      	b.n	8001e12 <HAL_TIM_OC_Start+0x2a>
 8001e00:	290c      	cmp	r1, #12
 8001e02:	d015      	beq.n	8001e30 <HAL_TIM_OC_Start+0x48>
 8001e04:	2910      	cmp	r1, #16
 8001e06:	d1f8      	bne.n	8001dfa <HAL_TIM_OC_Start+0x12>
 8001e08:	0003      	movs	r3, r0
 8001e0a:	3342      	adds	r3, #66	@ 0x42
 8001e0c:	e001      	b.n	8001e12 <HAL_TIM_OC_Start+0x2a>
 8001e0e:	0003      	movs	r3, r0
 8001e10:	333e      	adds	r3, #62	@ 0x3e
 8001e12:	781b      	ldrb	r3, [r3, #0]
 8001e14:	3b01      	subs	r3, #1
 8001e16:	1e58      	subs	r0, r3, #1
 8001e18:	4183      	sbcs	r3, r0
 8001e1a:	b2db      	uxtb	r3, r3
 8001e1c:	2001      	movs	r0, #1
 8001e1e:	2b00      	cmp	r3, #0
 8001e20:	d009      	beq.n	8001e36 <HAL_TIM_OC_Start+0x4e>
 8001e22:	bd10      	pop	{r4, pc}
 8001e24:	0003      	movs	r3, r0
 8001e26:	333f      	adds	r3, #63	@ 0x3f
 8001e28:	e7f3      	b.n	8001e12 <HAL_TIM_OC_Start+0x2a>
 8001e2a:	0003      	movs	r3, r0
 8001e2c:	3340      	adds	r3, #64	@ 0x40
 8001e2e:	e7f0      	b.n	8001e12 <HAL_TIM_OC_Start+0x2a>
 8001e30:	0003      	movs	r3, r0
 8001e32:	3341      	adds	r3, #65	@ 0x41
 8001e34:	e7ed      	b.n	8001e12 <HAL_TIM_OC_Start+0x2a>
 8001e36:	2302      	movs	r3, #2
 8001e38:	2908      	cmp	r1, #8
 8001e3a:	d030      	beq.n	8001e9e <HAL_TIM_OC_Start+0xb6>
 8001e3c:	d806      	bhi.n	8001e4c <HAL_TIM_OC_Start+0x64>
 8001e3e:	2900      	cmp	r1, #0
 8001e40:	d00b      	beq.n	8001e5a <HAL_TIM_OC_Start+0x72>
 8001e42:	2904      	cmp	r1, #4
 8001e44:	d028      	beq.n	8001e98 <HAL_TIM_OC_Start+0xb0>
 8001e46:	0010      	movs	r0, r2
 8001e48:	3043      	adds	r0, #67	@ 0x43
 8001e4a:	e008      	b.n	8001e5e <HAL_TIM_OC_Start+0x76>
 8001e4c:	290c      	cmp	r1, #12
 8001e4e:	d029      	beq.n	8001ea4 <HAL_TIM_OC_Start+0xbc>
 8001e50:	2910      	cmp	r1, #16
 8001e52:	d1f8      	bne.n	8001e46 <HAL_TIM_OC_Start+0x5e>
 8001e54:	0010      	movs	r0, r2
 8001e56:	3042      	adds	r0, #66	@ 0x42
 8001e58:	e001      	b.n	8001e5e <HAL_TIM_OC_Start+0x76>
 8001e5a:	0010      	movs	r0, r2
 8001e5c:	303e      	adds	r0, #62	@ 0x3e
 8001e5e:	7003      	strb	r3, [r0, #0]
 8001e60:	6814      	ldr	r4, [r2, #0]
 8001e62:	2201      	movs	r2, #1
 8001e64:	0020      	movs	r0, r4
 8001e66:	f7ff ffb1 	bl	8001dcc <TIM_CCxChannelCmd>
 8001e6a:	4a16      	ldr	r2, [pc, #88]	@ (8001ec4 <HAL_TIM_OC_Start+0xdc>)
 8001e6c:	4294      	cmp	r4, r2
 8001e6e:	d005      	beq.n	8001e7c <HAL_TIM_OC_Start+0x94>
 8001e70:	4b15      	ldr	r3, [pc, #84]	@ (8001ec8 <HAL_TIM_OC_Start+0xe0>)
 8001e72:	429c      	cmp	r4, r3
 8001e74:	d002      	beq.n	8001e7c <HAL_TIM_OC_Start+0x94>
 8001e76:	4b15      	ldr	r3, [pc, #84]	@ (8001ecc <HAL_TIM_OC_Start+0xe4>)
 8001e78:	429c      	cmp	r4, r3
 8001e7a:	d116      	bne.n	8001eaa <HAL_TIM_OC_Start+0xc2>
 8001e7c:	2380      	movs	r3, #128	@ 0x80
 8001e7e:	6c61      	ldr	r1, [r4, #68]	@ 0x44
 8001e80:	021b      	lsls	r3, r3, #8
 8001e82:	430b      	orrs	r3, r1
 8001e84:	6463      	str	r3, [r4, #68]	@ 0x44
 8001e86:	4294      	cmp	r4, r2
 8001e88:	d112      	bne.n	8001eb0 <HAL_TIM_OC_Start+0xc8>
 8001e8a:	68a3      	ldr	r3, [r4, #8]
 8001e8c:	4a10      	ldr	r2, [pc, #64]	@ (8001ed0 <HAL_TIM_OC_Start+0xe8>)
 8001e8e:	4013      	ands	r3, r2
 8001e90:	2b06      	cmp	r3, #6
 8001e92:	d112      	bne.n	8001eba <HAL_TIM_OC_Start+0xd2>
 8001e94:	2000      	movs	r0, #0
 8001e96:	e7c4      	b.n	8001e22 <HAL_TIM_OC_Start+0x3a>
 8001e98:	0010      	movs	r0, r2
 8001e9a:	303f      	adds	r0, #63	@ 0x3f
 8001e9c:	e7df      	b.n	8001e5e <HAL_TIM_OC_Start+0x76>
 8001e9e:	0010      	movs	r0, r2
 8001ea0:	3040      	adds	r0, #64	@ 0x40
 8001ea2:	e7dc      	b.n	8001e5e <HAL_TIM_OC_Start+0x76>
 8001ea4:	0010      	movs	r0, r2
 8001ea6:	3041      	adds	r0, #65	@ 0x41
 8001ea8:	e7d9      	b.n	8001e5e <HAL_TIM_OC_Start+0x76>
 8001eaa:	4b0a      	ldr	r3, [pc, #40]	@ (8001ed4 <HAL_TIM_OC_Start+0xec>)
 8001eac:	429c      	cmp	r4, r3
 8001eae:	d0ec      	beq.n	8001e8a <HAL_TIM_OC_Start+0xa2>
 8001eb0:	2301      	movs	r3, #1
 8001eb2:	6822      	ldr	r2, [r4, #0]
 8001eb4:	4313      	orrs	r3, r2
 8001eb6:	6023      	str	r3, [r4, #0]
 8001eb8:	e7ec      	b.n	8001e94 <HAL_TIM_OC_Start+0xac>
 8001eba:	2280      	movs	r2, #128	@ 0x80
 8001ebc:	0252      	lsls	r2, r2, #9
 8001ebe:	4293      	cmp	r3, r2
 8001ec0:	d1f6      	bne.n	8001eb0 <HAL_TIM_OC_Start+0xc8>
 8001ec2:	e7e7      	b.n	8001e94 <HAL_TIM_OC_Start+0xac>
 8001ec4:	40012c00 	.word	0x40012c00
 8001ec8:	40014400 	.word	0x40014400
 8001ecc:	40014800 	.word	0x40014800
 8001ed0:	00010007 	.word	0x00010007
 8001ed4:	40000400 	.word	0x40000400

08001ed8 <HAL_TIM_PWM_Start>:
 8001ed8:	b510      	push	{r4, lr}
 8001eda:	f7ff ff85 	bl	8001de8 <HAL_TIM_OC_Start>
 8001ede:	bd10      	pop	{r4, pc}

08001ee0 <HAL_TIMEx_MasterConfigSynchronization>:
 8001ee0:	b5f0      	push	{r4, r5, r6, r7, lr}
 8001ee2:	0004      	movs	r4, r0
 8001ee4:	2202      	movs	r2, #2
 8001ee6:	343c      	adds	r4, #60	@ 0x3c
 8001ee8:	7825      	ldrb	r5, [r4, #0]
 8001eea:	0003      	movs	r3, r0
 8001eec:	0010      	movs	r0, r2
 8001eee:	2d01      	cmp	r5, #1
 8001ef0:	d01f      	beq.n	8001f32 <HAL_TIMEx_MasterConfigSynchronization+0x52>
 8001ef2:	001d      	movs	r5, r3
 8001ef4:	353d      	adds	r5, #61	@ 0x3d
 8001ef6:	702a      	strb	r2, [r5, #0]
 8001ef8:	681a      	ldr	r2, [r3, #0]
 8001efa:	4e0e      	ldr	r6, [pc, #56]	@ (8001f34 <HAL_TIMEx_MasterConfigSynchronization+0x54>)
 8001efc:	6853      	ldr	r3, [r2, #4]
 8001efe:	6890      	ldr	r0, [r2, #8]
 8001f00:	42b2      	cmp	r2, r6
 8001f02:	d103      	bne.n	8001f0c <HAL_TIMEx_MasterConfigSynchronization+0x2c>
 8001f04:	4f0c      	ldr	r7, [pc, #48]	@ (8001f38 <HAL_TIMEx_MasterConfigSynchronization+0x58>)
 8001f06:	403b      	ands	r3, r7
 8001f08:	684f      	ldr	r7, [r1, #4]
 8001f0a:	433b      	orrs	r3, r7
 8001f0c:	2770      	movs	r7, #112	@ 0x70
 8001f0e:	43bb      	bics	r3, r7
 8001f10:	680f      	ldr	r7, [r1, #0]
 8001f12:	433b      	orrs	r3, r7
 8001f14:	6053      	str	r3, [r2, #4]
 8001f16:	42b2      	cmp	r2, r6
 8001f18:	d002      	beq.n	8001f20 <HAL_TIMEx_MasterConfigSynchronization+0x40>
 8001f1a:	4b08      	ldr	r3, [pc, #32]	@ (8001f3c <HAL_TIMEx_MasterConfigSynchronization+0x5c>)
 8001f1c:	429a      	cmp	r2, r3
 8001f1e:	d104      	bne.n	8001f2a <HAL_TIMEx_MasterConfigSynchronization+0x4a>
 8001f20:	2380      	movs	r3, #128	@ 0x80
 8001f22:	4398      	bics	r0, r3
 8001f24:	688b      	ldr	r3, [r1, #8]
 8001f26:	4318      	orrs	r0, r3
 8001f28:	6090      	str	r0, [r2, #8]
 8001f2a:	2301      	movs	r3, #1
 8001f2c:	2000      	movs	r0, #0
 8001f2e:	702b      	strb	r3, [r5, #0]
 8001f30:	7020      	strb	r0, [r4, #0]
 8001f32:	bdf0      	pop	{r4, r5, r6, r7, pc}
 8001f34:	40012c00 	.word	0x40012c00
 8001f38:	ff0fffff 	.word	0xff0fffff
 8001f3c:	40000400 	.word	0x40000400

08001f40 <UART_EndRxTransfer>:
 8001f40:	b530      	push	{r4, r5, lr}
 8001f42:	f3ef 8410 	mrs	r4, PRIMASK
 8001f46:	2201      	movs	r2, #1
 8001f48:	f382 8810 	msr	PRIMASK, r2
 8001f4c:	6801      	ldr	r1, [r0, #0]
 8001f4e:	4d13      	ldr	r5, [pc, #76]	@ (8001f9c <UART_EndRxTransfer+0x5c>)
 8001f50:	680b      	ldr	r3, [r1, #0]
 8001f52:	402b      	ands	r3, r5
 8001f54:	600b      	str	r3, [r1, #0]
 8001f56:	f384 8810 	msr	PRIMASK, r4
 8001f5a:	f3ef 8110 	mrs	r1, PRIMASK
 8001f5e:	f382 8810 	msr	PRIMASK, r2
 8001f62:	6802      	ldr	r2, [r0, #0]
 8001f64:	4c0e      	ldr	r4, [pc, #56]	@ (8001fa0 <UART_EndRxTransfer+0x60>)
 8001f66:	6893      	ldr	r3, [r2, #8]
 8001f68:	4023      	ands	r3, r4
 8001f6a:	6093      	str	r3, [r2, #8]
 8001f6c:	f381 8810 	msr	PRIMASK, r1
 8001f70:	6ec3      	ldr	r3, [r0, #108]	@ 0x6c
 8001f72:	2b01      	cmp	r3, #1
 8001f74:	d10a      	bne.n	8001f8c <UART_EndRxTransfer+0x4c>
 8001f76:	f3ef 8110 	mrs	r1, PRIMASK
 8001f7a:	f383 8810 	msr	PRIMASK, r3
 8001f7e:	2410      	movs	r4, #16
 8001f80:	6802      	ldr	r2, [r0, #0]
 8001f82:	6813      	ldr	r3, [r2, #0]
 8001f84:	43a3      	bics	r3, r4
 8001f86:	6013      	str	r3, [r2, #0]
 8001f88:	f381 8810 	msr	PRIMASK, r1
 8001f8c:	0003      	movs	r3, r0
 8001f8e:	2220      	movs	r2, #32
 8001f90:	338c      	adds	r3, #140	@ 0x8c
 8001f92:	601a      	str	r2, [r3, #0]
 8001f94:	2300      	movs	r3, #0
 8001f96:	66c3      	str	r3, [r0, #108]	@ 0x6c
 8001f98:	6743      	str	r3, [r0, #116]	@ 0x74
 8001f9a:	bd30      	pop	{r4, r5, pc}
 8001f9c:	fffffedf 	.word	0xfffffedf
 8001fa0:	effffffe 	.word	0xeffffffe

08001fa4 <HAL_UART_ErrorCallback>:
 8001fa4:	4770      	bx	lr

08001fa6 <HAL_UARTEx_RxEventCallback>:
 8001fa6:	4770      	bx	lr

08001fa8 <UART_RxISR_8BIT>:
 8001fa8:	0001      	movs	r1, r0
 8001faa:	b5f8      	push	{r3, r4, r5, r6, r7, lr}
 8001fac:	0003      	movs	r3, r0
 8001fae:	318c      	adds	r1, #140	@ 0x8c
 8001fb0:	680c      	ldr	r4, [r1, #0]
 8001fb2:	3360      	adds	r3, #96	@ 0x60
 8001fb4:	881a      	ldrh	r2, [r3, #0]
 8001fb6:	6803      	ldr	r3, [r0, #0]
 8001fb8:	2c22      	cmp	r4, #34	@ 0x22
 8001fba:	d157      	bne.n	800206c <UART_RxISR_8BIT+0xc4>
 8001fbc:	6a5b      	ldr	r3, [r3, #36]	@ 0x24
 8001fbe:	6d84      	ldr	r4, [r0, #88]	@ 0x58
 8001fc0:	4013      	ands	r3, r2
 8001fc2:	0002      	movs	r2, r0
 8001fc4:	7023      	strb	r3, [r4, #0]
 8001fc6:	6d83      	ldr	r3, [r0, #88]	@ 0x58
 8001fc8:	325e      	adds	r2, #94	@ 0x5e
 8001fca:	3301      	adds	r3, #1
 8001fcc:	6583      	str	r3, [r0, #88]	@ 0x58
 8001fce:	8813      	ldrh	r3, [r2, #0]
 8001fd0:	3b01      	subs	r3, #1
 8001fd2:	b29b      	uxth	r3, r3
 8001fd4:	8013      	strh	r3, [r2, #0]
 8001fd6:	8813      	ldrh	r3, [r2, #0]
 8001fd8:	b29c      	uxth	r4, r3
 8001fda:	2b00      	cmp	r3, #0
 8001fdc:	d142      	bne.n	8002064 <UART_RxISR_8BIT+0xbc>
 8001fde:	f3ef 8610 	mrs	r6, PRIMASK
 8001fe2:	3301      	adds	r3, #1
 8001fe4:	f383 8810 	msr	PRIMASK, r3
 8001fe8:	6805      	ldr	r5, [r0, #0]
 8001fea:	4f23      	ldr	r7, [pc, #140]	@ (8002078 <UART_RxISR_8BIT+0xd0>)
 8001fec:	682a      	ldr	r2, [r5, #0]
 8001fee:	403a      	ands	r2, r7
 8001ff0:	602a      	str	r2, [r5, #0]
 8001ff2:	f386 8810 	msr	PRIMASK, r6
 8001ff6:	f3ef 8610 	mrs	r6, PRIMASK
 8001ffa:	f383 8810 	msr	PRIMASK, r3
 8001ffe:	6805      	ldr	r5, [r0, #0]
 8002000:	68aa      	ldr	r2, [r5, #8]
 8002002:	439a      	bics	r2, r3
 8002004:	60aa      	str	r2, [r5, #8]
 8002006:	f386 8810 	msr	PRIMASK, r6
 800200a:	2220      	movs	r2, #32
 800200c:	600a      	str	r2, [r1, #0]
 800200e:	6802      	ldr	r2, [r0, #0]
 8002010:	6704      	str	r4, [r0, #112]	@ 0x70
 8002012:	6852      	ldr	r2, [r2, #4]
 8002014:	6744      	str	r4, [r0, #116]	@ 0x74
 8002016:	0212      	lsls	r2, r2, #8
 8002018:	d50a      	bpl.n	8002030 <UART_RxISR_8BIT+0x88>
 800201a:	f3ef 8110 	mrs	r1, PRIMASK
 800201e:	f383 8810 	msr	PRIMASK, r3
 8002022:	6802      	ldr	r2, [r0, #0]
 8002024:	4c15      	ldr	r4, [pc, #84]	@ (800207c <UART_RxISR_8BIT+0xd4>)
 8002026:	6813      	ldr	r3, [r2, #0]
 8002028:	4023      	ands	r3, r4
 800202a:	6013      	str	r3, [r2, #0]
 800202c:	f381 8810 	msr	PRIMASK, r1
 8002030:	6ec3      	ldr	r3, [r0, #108]	@ 0x6c
 8002032:	2b01      	cmp	r3, #1
 8002034:	d117      	bne.n	8002066 <UART_RxISR_8BIT+0xbe>
 8002036:	2200      	movs	r2, #0
 8002038:	66c2      	str	r2, [r0, #108]	@ 0x6c
 800203a:	f3ef 8410 	mrs	r4, PRIMASK
 800203e:	f383 8810 	msr	PRIMASK, r3
 8002042:	6801      	ldr	r1, [r0, #0]
 8002044:	330f      	adds	r3, #15
 8002046:	680a      	ldr	r2, [r1, #0]
 8002048:	439a      	bics	r2, r3
 800204a:	600a      	str	r2, [r1, #0]
 800204c:	f384 8810 	msr	PRIMASK, r4
 8002050:	6802      	ldr	r2, [r0, #0]
 8002052:	69d1      	ldr	r1, [r2, #28]
 8002054:	4219      	tst	r1, r3
 8002056:	d000      	beq.n	800205a <UART_RxISR_8BIT+0xb2>
 8002058:	6213      	str	r3, [r2, #32]
 800205a:	0003      	movs	r3, r0
 800205c:	335c      	adds	r3, #92	@ 0x5c
 800205e:	8819      	ldrh	r1, [r3, #0]
 8002060:	f7ff ffa1 	bl	8001fa6 <HAL_UARTEx_RxEventCallback>
 8002064:	bdf8      	pop	{r3, r4, r5, r6, r7, pc}
 8002066:	f7fe f9d9 	bl	800041c <HAL_UART_RxCpltCallback>
 800206a:	e7fb      	b.n	8002064 <UART_RxISR_8BIT+0xbc>
 800206c:	2208      	movs	r2, #8
 800206e:	6999      	ldr	r1, [r3, #24]
 8002070:	430a      	orrs	r2, r1
 8002072:	619a      	str	r2, [r3, #24]
 8002074:	e7f6      	b.n	8002064 <UART_RxISR_8BIT+0xbc>
 8002076:	46c0      	nop			@ (mov r8, r8)
 8002078:	fffffedf 	.word	0xfffffedf
 800207c:	fbffffff 	.word	0xfbffffff

08002080 <UART_RxISR_16BIT>:
 8002080:	0002      	movs	r2, r0
 8002082:	b5f8      	push	{r3, r4, r5, r6, r7, lr}
 8002084:	0003      	movs	r3, r0
 8002086:	328c      	adds	r2, #140	@ 0x8c
 8002088:	6811      	ldr	r1, [r2, #0]
 800208a:	3360      	adds	r3, #96	@ 0x60
 800208c:	881c      	ldrh	r4, [r3, #0]
 800208e:	6803      	ldr	r3, [r0, #0]
 8002090:	2922      	cmp	r1, #34	@ 0x22
 8002092:	d156      	bne.n	8002142 <UART_RxISR_16BIT+0xc2>
 8002094:	6a59      	ldr	r1, [r3, #36]	@ 0x24
 8002096:	6d83      	ldr	r3, [r0, #88]	@ 0x58
 8002098:	4021      	ands	r1, r4
 800209a:	8019      	strh	r1, [r3, #0]
 800209c:	0001      	movs	r1, r0
 800209e:	3302      	adds	r3, #2
 80020a0:	6583      	str	r3, [r0, #88]	@ 0x58
 80020a2:	315e      	adds	r1, #94	@ 0x5e
 80020a4:	880b      	ldrh	r3, [r1, #0]
 80020a6:	3b01      	subs	r3, #1
 80020a8:	b29b      	uxth	r3, r3
 80020aa:	800b      	strh	r3, [r1, #0]
 80020ac:	880b      	ldrh	r3, [r1, #0]
 80020ae:	b29c      	uxth	r4, r3
 80020b0:	2b00      	cmp	r3, #0
 80020b2:	d142      	bne.n	800213a <UART_RxISR_16BIT+0xba>
 80020b4:	f3ef 8610 	mrs	r6, PRIMASK
 80020b8:	3301      	adds	r3, #1
 80020ba:	f383 8810 	msr	PRIMASK, r3
 80020be:	6805      	ldr	r5, [r0, #0]
 80020c0:	4f22      	ldr	r7, [pc, #136]	@ (800214c <UART_RxISR_16BIT+0xcc>)
 80020c2:	6829      	ldr	r1, [r5, #0]
 80020c4:	4039      	ands	r1, r7
 80020c6:	6029      	str	r1, [r5, #0]
 80020c8:	f386 8810 	msr	PRIMASK, r6
 80020cc:	f3ef 8610 	mrs	r6, PRIMASK
 80020d0:	f383 8810 	msr	PRIMASK, r3
 80020d4:	6805      	ldr	r5, [r0, #0]
 80020d6:	68a9      	ldr	r1, [r5, #8]
 80020d8:	4399      	bics	r1, r3
 80020da:	60a9      	str	r1, [r5, #8]
 80020dc:	f386 8810 	msr	PRIMASK, r6
 80020e0:	2120      	movs	r1, #32
 80020e2:	6011      	str	r1, [r2, #0]
 80020e4:	6802      	ldr	r2, [r0, #0]
 80020e6:	6704      	str	r4, [r0, #112]	@ 0x70
 80020e8:	6852      	ldr	r2, [r2, #4]
 80020ea:	6744      	str	r4, [r0, #116]	@ 0x74
 80020ec:	0212      	lsls	r2, r2, #8
 80020ee:	d50a      	bpl.n	8002106 <UART_RxISR_16BIT+0x86>
 80020f0:	f3ef 8110 	mrs	r1, PRIMASK
 80020f4:	f383 8810 	msr	PRIMASK, r3
 80020f8:	6802      	ldr	r2, [r0, #0]
 80020fa:	4c15      	ldr	r4, [pc, #84]	@ (8002150 <UART_RxISR_16BIT+0xd0>)
 80020fc:	6813      	ldr	r3, [r2, #0]
 80020fe:	4023      	ands	r3, r4
 8002100:	6013      	str	r3, [r2, #0]
 8002102:	f381 8810 	msr	PRIMASK, r1
 8002106:	6ec3      	ldr	r3, [r0, #108]	@ 0x6c
 8002108:	2b01      	cmp	r3, #1
 800210a:	d117      	bne.n	800213c <UART_RxISR_16BIT+0xbc>
 800210c:	2200      	movs	r2, #0
 800210e:	66c2      	str	r2, [r0, #108]	@ 0x6c
 8002110:	f3ef 8410 	mrs	r4, PRIMASK
 8002114:	f383 8810 	msr	PRIMASK, r3
 8002118:	6801      	ldr	r1, [r0, #0]
 800211a:	330f      	adds	r3, #15
 800211c:	680a      	ldr	r2, [r1, #0]
 800211e:	439a      	bics	r2, r3
 8002120:	600a      	str	r2, [r1, #0]
 8002122:	f384 8810 	msr	PRIMASK, r4
 8002126:	6802      	ldr	r2, [r0, #0]
 8002128:	69d1      	ldr	r1, [r2, #28]
 800212a:	4219      	tst	r1, r3
 800212c:	d000      	beq.n	8002130 <UART_RxISR_16BIT+0xb0>
 800212e:	6213      	str	r3, [r2, #32]
 8002130:	0003      	movs	r3, r0
 8002132:	335c      	adds	r3, #92	@ 0x5c
 8002134:	8819      	ldrh	r1, [r3, #0]
 8002136:	f7ff ff36 	bl	8001fa6 <HAL_UARTEx_RxEventCallback>
 800213a:	bdf8      	pop	{r3, r4, r5, r6, r7, pc}
 800213c:	f7fe f96e 	bl	800041c <HAL_UART_RxCpltCallback>
 8002140:	e7fb      	b.n	800213a <UART_RxISR_16BIT+0xba>
 8002142:	2208      	movs	r2, #8
 8002144:	6999      	ldr	r1, [r3, #24]
 8002146:	430a      	orrs	r2, r1
 8002148:	619a      	str	r2, [r3, #24]
 800214a:	e7f6      	b.n	800213a <UART_RxISR_16BIT+0xba>
 800214c:	fffffedf 	.word	0xfffffedf
 8002150:	fbffffff 	.word	0xfbffffff

08002154 <UART_RxISR_8BIT_FIFOEN>:
 8002154:	0003      	movs	r3, r0
 8002156:	b5f0      	push	{r4, r5, r6, r7, lr}
 8002158:	0006      	movs	r6, r0
 800215a:	3360      	adds	r3, #96	@ 0x60
 800215c:	881b      	ldrh	r3, [r3, #0]
 800215e:	b085      	sub	sp, #20
 8002160:	9302      	str	r3, [sp, #8]
 8002162:	6803      	ldr	r3, [r0, #0]
 8002164:	368c      	adds	r6, #140	@ 0x8c
 8002166:	69dd      	ldr	r5, [r3, #28]
 8002168:	681a      	ldr	r2, [r3, #0]
 800216a:	0004      	movs	r4, r0
 800216c:	9203      	str	r2, [sp, #12]
 800216e:	689a      	ldr	r2, [r3, #8]
 8002170:	9201      	str	r2, [sp, #4]
 8002172:	6832      	ldr	r2, [r6, #0]
 8002174:	2a22      	cmp	r2, #34	@ 0x22
 8002176:	d000      	beq.n	800217a <UART_RxISR_8BIT_FIFOEN+0x26>
 8002178:	e0c2      	b.n	8002300 <UART_RxISR_8BIT_FIFOEN+0x1ac>
 800217a:	0003      	movs	r3, r0
 800217c:	3368      	adds	r3, #104	@ 0x68
 800217e:	881b      	ldrh	r3, [r3, #0]
 8002180:	2b00      	cmp	r3, #0
 8002182:	d100      	bne.n	8002186 <UART_RxISR_8BIT_FIFOEN+0x32>
 8002184:	e092      	b.n	80022ac <UART_RxISR_8BIT_FIFOEN+0x158>
 8002186:	2320      	movs	r3, #32
 8002188:	421d      	tst	r5, r3
 800218a:	d100      	bne.n	800218e <UART_RxISR_8BIT_FIFOEN+0x3a>
 800218c:	e08e      	b.n	80022ac <UART_RxISR_8BIT_FIFOEN+0x158>
 800218e:	6823      	ldr	r3, [r4, #0]
 8002190:	9902      	ldr	r1, [sp, #8]
 8002192:	6a5b      	ldr	r3, [r3, #36]	@ 0x24
 8002194:	6da2      	ldr	r2, [r4, #88]	@ 0x58
 8002196:	400b      	ands	r3, r1
 8002198:	7013      	strb	r3, [r2, #0]
 800219a:	0022      	movs	r2, r4
 800219c:	6da3      	ldr	r3, [r4, #88]	@ 0x58
 800219e:	325e      	adds	r2, #94	@ 0x5e
 80021a0:	3301      	adds	r3, #1
 80021a2:	65a3      	str	r3, [r4, #88]	@ 0x58
 80021a4:	8813      	ldrh	r3, [r2, #0]
 80021a6:	3b01      	subs	r3, #1
 80021a8:	b29b      	uxth	r3, r3
 80021aa:	8013      	strh	r3, [r2, #0]
 80021ac:	2307      	movs	r3, #7
 80021ae:	6822      	ldr	r2, [r4, #0]
 80021b0:	69d5      	ldr	r5, [r2, #28]
 80021b2:	421d      	tst	r5, r3
 80021b4:	d02f      	beq.n	8002216 <UART_RxISR_8BIT_FIFOEN+0xc2>
 80021b6:	3b06      	subs	r3, #6
 80021b8:	421d      	tst	r5, r3
 80021ba:	d008      	beq.n	80021ce <UART_RxISR_8BIT_FIFOEN+0x7a>
 80021bc:	9903      	ldr	r1, [sp, #12]
 80021be:	05c9      	lsls	r1, r1, #23
 80021c0:	d505      	bpl.n	80021ce <UART_RxISR_8BIT_FIFOEN+0x7a>
 80021c2:	0021      	movs	r1, r4
 80021c4:	6213      	str	r3, [r2, #32]
 80021c6:	3190      	adds	r1, #144	@ 0x90
 80021c8:	6808      	ldr	r0, [r1, #0]
 80021ca:	4303      	orrs	r3, r0
 80021cc:	600b      	str	r3, [r1, #0]
 80021ce:	2302      	movs	r3, #2
 80021d0:	421d      	tst	r5, r3
 80021d2:	d009      	beq.n	80021e8 <UART_RxISR_8BIT_FIFOEN+0x94>
 80021d4:	9901      	ldr	r1, [sp, #4]
 80021d6:	07c9      	lsls	r1, r1, #31
 80021d8:	d506      	bpl.n	80021e8 <UART_RxISR_8BIT_FIFOEN+0x94>
 80021da:	0021      	movs	r1, r4
 80021dc:	6213      	str	r3, [r2, #32]
 80021de:	3190      	adds	r1, #144	@ 0x90
 80021e0:	6808      	ldr	r0, [r1, #0]
 80021e2:	18db      	adds	r3, r3, r3
 80021e4:	4303      	orrs	r3, r0
 80021e6:	600b      	str	r3, [r1, #0]
 80021e8:	2304      	movs	r3, #4
 80021ea:	421d      	tst	r5, r3
 80021ec:	d009      	beq.n	8002202 <UART_RxISR_8BIT_FIFOEN+0xae>
 80021ee:	9901      	ldr	r1, [sp, #4]
 80021f0:	07c9      	lsls	r1, r1, #31
 80021f2:	d506      	bpl.n	8002202 <UART_RxISR_8BIT_FIFOEN+0xae>
 80021f4:	6213      	str	r3, [r2, #32]
 80021f6:	0022      	movs	r2, r4
 80021f8:	3290      	adds	r2, #144	@ 0x90
 80021fa:	6811      	ldr	r1, [r2, #0]
 80021fc:	3b02      	subs	r3, #2
 80021fe:	430b      	orrs	r3, r1
 8002200:	6013      	str	r3, [r2, #0]
 8002202:	0027      	movs	r7, r4
 8002204:	3790      	adds	r7, #144	@ 0x90
 8002206:	683b      	ldr	r3, [r7, #0]
 8002208:	2b00      	cmp	r3, #0
 800220a:	d004      	beq.n	8002216 <UART_RxISR_8BIT_FIFOEN+0xc2>
 800220c:	0020      	movs	r0, r4
 800220e:	f7ff fec9 	bl	8001fa4 <HAL_UART_ErrorCallback>
 8002212:	2300      	movs	r3, #0
 8002214:	603b      	str	r3, [r7, #0]
 8002216:	0023      	movs	r3, r4
 8002218:	335e      	adds	r3, #94	@ 0x5e
 800221a:	881b      	ldrh	r3, [r3, #0]
 800221c:	b299      	uxth	r1, r3
 800221e:	2b00      	cmp	r3, #0
 8002220:	d1b1      	bne.n	8002186 <UART_RxISR_8BIT_FIFOEN+0x32>
 8002222:	f3ef 8510 	mrs	r5, PRIMASK
 8002226:	3301      	adds	r3, #1
 8002228:	f383 8810 	msr	PRIMASK, r3
 800222c:	6820      	ldr	r0, [r4, #0]
 800222e:	4f37      	ldr	r7, [pc, #220]	@ (800230c <UART_RxISR_8BIT_FIFOEN+0x1b8>)
 8002230:	6802      	ldr	r2, [r0, #0]
 8002232:	403a      	ands	r2, r7
 8002234:	6002      	str	r2, [r0, #0]
 8002236:	f385 8810 	msr	PRIMASK, r5
 800223a:	f3ef 8510 	mrs	r5, PRIMASK
 800223e:	f383 8810 	msr	PRIMASK, r3
 8002242:	6820      	ldr	r0, [r4, #0]
 8002244:	4f32      	ldr	r7, [pc, #200]	@ (8002310 <UART_RxISR_8BIT_FIFOEN+0x1bc>)
 8002246:	6882      	ldr	r2, [r0, #8]
 8002248:	403a      	ands	r2, r7
 800224a:	6082      	str	r2, [r0, #8]
 800224c:	f385 8810 	msr	PRIMASK, r5
 8002250:	2220      	movs	r2, #32
 8002252:	6032      	str	r2, [r6, #0]
 8002254:	6822      	ldr	r2, [r4, #0]
 8002256:	6721      	str	r1, [r4, #112]	@ 0x70
 8002258:	6852      	ldr	r2, [r2, #4]
 800225a:	6761      	str	r1, [r4, #116]	@ 0x74
 800225c:	0212      	lsls	r2, r2, #8
 800225e:	d50a      	bpl.n	8002276 <UART_RxISR_8BIT_FIFOEN+0x122>
 8002260:	f3ef 8110 	mrs	r1, PRIMASK
 8002264:	f383 8810 	msr	PRIMASK, r3
 8002268:	6822      	ldr	r2, [r4, #0]
 800226a:	482a      	ldr	r0, [pc, #168]	@ (8002314 <UART_RxISR_8BIT_FIFOEN+0x1c0>)
 800226c:	6813      	ldr	r3, [r2, #0]
 800226e:	4003      	ands	r3, r0
 8002270:	6013      	str	r3, [r2, #0]
 8002272:	f381 8810 	msr	PRIMASK, r1
 8002276:	6ee3      	ldr	r3, [r4, #108]	@ 0x6c
 8002278:	2b01      	cmp	r3, #1
 800227a:	d13d      	bne.n	80022f8 <UART_RxISR_8BIT_FIFOEN+0x1a4>
 800227c:	2200      	movs	r2, #0
 800227e:	66e2      	str	r2, [r4, #108]	@ 0x6c
 8002280:	f3ef 8010 	mrs	r0, PRIMASK
 8002284:	f383 8810 	msr	PRIMASK, r3
 8002288:	6821      	ldr	r1, [r4, #0]
 800228a:	330f      	adds	r3, #15
 800228c:	680a      	ldr	r2, [r1, #0]
 800228e:	439a      	bics	r2, r3
 8002290:	600a      	str	r2, [r1, #0]
 8002292:	f380 8810 	msr	PRIMASK, r0
 8002296:	6822      	ldr	r2, [r4, #0]
 8002298:	69d1      	ldr	r1, [r2, #28]
 800229a:	4219      	tst	r1, r3
 800229c:	d000      	beq.n	80022a0 <UART_RxISR_8BIT_FIFOEN+0x14c>
 800229e:	6213      	str	r3, [r2, #32]
 80022a0:	0023      	movs	r3, r4
 80022a2:	335c      	adds	r3, #92	@ 0x5c
 80022a4:	0020      	movs	r0, r4
 80022a6:	8819      	ldrh	r1, [r3, #0]
 80022a8:	f7ff fe7d 	bl	8001fa6 <HAL_UARTEx_RxEventCallback>
 80022ac:	0023      	movs	r3, r4
 80022ae:	335e      	adds	r3, #94	@ 0x5e
 80022b0:	881b      	ldrh	r3, [r3, #0]
 80022b2:	b29a      	uxth	r2, r3
 80022b4:	2b00      	cmp	r3, #0
 80022b6:	d01d      	beq.n	80022f4 <UART_RxISR_8BIT_FIFOEN+0x1a0>
 80022b8:	0023      	movs	r3, r4
 80022ba:	3368      	adds	r3, #104	@ 0x68
 80022bc:	881b      	ldrh	r3, [r3, #0]
 80022be:	4293      	cmp	r3, r2
 80022c0:	d918      	bls.n	80022f4 <UART_RxISR_8BIT_FIFOEN+0x1a0>
 80022c2:	f3ef 8010 	mrs	r0, PRIMASK
 80022c6:	2201      	movs	r2, #1
 80022c8:	f382 8810 	msr	PRIMASK, r2
 80022cc:	6821      	ldr	r1, [r4, #0]
 80022ce:	4d12      	ldr	r5, [pc, #72]	@ (8002318 <UART_RxISR_8BIT_FIFOEN+0x1c4>)
 80022d0:	688b      	ldr	r3, [r1, #8]
 80022d2:	402b      	ands	r3, r5
 80022d4:	608b      	str	r3, [r1, #8]
 80022d6:	f380 8810 	msr	PRIMASK, r0
 80022da:	4b10      	ldr	r3, [pc, #64]	@ (800231c <UART_RxISR_8BIT_FIFOEN+0x1c8>)
 80022dc:	6763      	str	r3, [r4, #116]	@ 0x74
 80022de:	f3ef 8110 	mrs	r1, PRIMASK
 80022e2:	f382 8810 	msr	PRIMASK, r2
 80022e6:	2320      	movs	r3, #32
 80022e8:	6822      	ldr	r2, [r4, #0]
 80022ea:	6810      	ldr	r0, [r2, #0]
 80022ec:	4303      	orrs	r3, r0
 80022ee:	6013      	str	r3, [r2, #0]
 80022f0:	f381 8810 	msr	PRIMASK, r1
 80022f4:	b005      	add	sp, #20
 80022f6:	bdf0      	pop	{r4, r5, r6, r7, pc}
 80022f8:	0020      	movs	r0, r4
 80022fa:	f7fe f88f 	bl	800041c <HAL_UART_RxCpltCallback>
 80022fe:	e7d5      	b.n	80022ac <UART_RxISR_8BIT_FIFOEN+0x158>
 8002300:	2208      	movs	r2, #8
 8002302:	6999      	ldr	r1, [r3, #24]
 8002304:	430a      	orrs	r2, r1
 8002306:	619a      	str	r2, [r3, #24]
 8002308:	e7f4      	b.n	80022f4 <UART_RxISR_8BIT_FIFOEN+0x1a0>
 800230a:	46c0      	nop			@ (mov r8, r8)
 800230c:	fffffeff 	.word	0xfffffeff
 8002310:	effffffe 	.word	0xeffffffe
 8002314:	fbffffff 	.word	0xfbffffff
 8002318:	efffffff 	.word	0xefffffff
 800231c:	08001fa9 	.word	0x08001fa9

08002320 <UART_RxISR_16BIT_FIFOEN>:
 8002320:	0003      	movs	r3, r0
 8002322:	b5f0      	push	{r4, r5, r6, r7, lr}
 8002324:	0006      	movs	r6, r0
 8002326:	3360      	adds	r3, #96	@ 0x60
 8002328:	881b      	ldrh	r3, [r3, #0]
 800232a:	b085      	sub	sp, #20
 800232c:	9302      	str	r3, [sp, #8]
 800232e:	6803      	ldr	r3, [r0, #0]
 8002330:	368c      	adds	r6, #140	@ 0x8c
 8002332:	69dd      	ldr	r5, [r3, #28]
 8002334:	681a      	ldr	r2, [r3, #0]
 8002336:	0004      	movs	r4, r0
 8002338:	9203      	str	r2, [sp, #12]
 800233a:	689a      	ldr	r2, [r3, #8]
 800233c:	9201      	str	r2, [sp, #4]
 800233e:	6832      	ldr	r2, [r6, #0]
 8002340:	2a22      	cmp	r2, #34	@ 0x22
 8002342:	d000      	beq.n	8002346 <UART_RxISR_16BIT_FIFOEN+0x26>
 8002344:	e0c0      	b.n	80024c8 <UART_RxISR_16BIT_FIFOEN+0x1a8>
 8002346:	0003      	movs	r3, r0
 8002348:	3368      	adds	r3, #104	@ 0x68
 800234a:	881b      	ldrh	r3, [r3, #0]
 800234c:	2b00      	cmp	r3, #0
 800234e:	d100      	bne.n	8002352 <UART_RxISR_16BIT_FIFOEN+0x32>
 8002350:	e090      	b.n	8002474 <UART_RxISR_16BIT_FIFOEN+0x154>
 8002352:	2320      	movs	r3, #32
 8002354:	421d      	tst	r5, r3
 8002356:	d100      	bne.n	800235a <UART_RxISR_16BIT_FIFOEN+0x3a>
 8002358:	e08c      	b.n	8002474 <UART_RxISR_16BIT_FIFOEN+0x154>
 800235a:	6823      	ldr	r3, [r4, #0]
 800235c:	9802      	ldr	r0, [sp, #8]
 800235e:	6a59      	ldr	r1, [r3, #36]	@ 0x24
 8002360:	6da2      	ldr	r2, [r4, #88]	@ 0x58
 8002362:	4001      	ands	r1, r0
 8002364:	8011      	strh	r1, [r2, #0]
 8002366:	0021      	movs	r1, r4
 8002368:	3202      	adds	r2, #2
 800236a:	65a2      	str	r2, [r4, #88]	@ 0x58
 800236c:	315e      	adds	r1, #94	@ 0x5e
 800236e:	880a      	ldrh	r2, [r1, #0]
 8002370:	3a01      	subs	r2, #1
 8002372:	b292      	uxth	r2, r2
 8002374:	800a      	strh	r2, [r1, #0]
 8002376:	2207      	movs	r2, #7
 8002378:	69dd      	ldr	r5, [r3, #28]
 800237a:	4215      	tst	r5, r2
 800237c:	d02f      	beq.n	80023de <UART_RxISR_16BIT_FIFOEN+0xbe>
 800237e:	3a06      	subs	r2, #6
 8002380:	4215      	tst	r5, r2
 8002382:	d008      	beq.n	8002396 <UART_RxISR_16BIT_FIFOEN+0x76>
 8002384:	9903      	ldr	r1, [sp, #12]
 8002386:	05c9      	lsls	r1, r1, #23
 8002388:	d505      	bpl.n	8002396 <UART_RxISR_16BIT_FIFOEN+0x76>
 800238a:	0021      	movs	r1, r4
 800238c:	621a      	str	r2, [r3, #32]
 800238e:	3190      	adds	r1, #144	@ 0x90
 8002390:	6808      	ldr	r0, [r1, #0]
 8002392:	4302      	orrs	r2, r0
 8002394:	600a      	str	r2, [r1, #0]
 8002396:	2202      	movs	r2, #2
 8002398:	4215      	tst	r5, r2
 800239a:	d009      	beq.n	80023b0 <UART_RxISR_16BIT_FIFOEN+0x90>
 800239c:	9901      	ldr	r1, [sp, #4]
 800239e:	07c9      	lsls	r1, r1, #31
 80023a0:	d506      	bpl.n	80023b0 <UART_RxISR_16BIT_FIFOEN+0x90>
 80023a2:	0021      	movs	r1, r4
 80023a4:	621a      	str	r2, [r3, #32]
 80023a6:	3190      	adds	r1, #144	@ 0x90
 80023a8:	6808      	ldr	r0, [r1, #0]
 80023aa:	1892      	adds	r2, r2, r2
 80023ac:	4302      	orrs	r2, r0
 80023ae:	600a      	str	r2, [r1, #0]
 80023b0:	2204      	movs	r2, #4
 80023b2:	4215      	tst	r5, r2
 80023b4:	d009      	beq.n	80023ca <UART_RxISR_16BIT_FIFOEN+0xaa>
 80023b6:	9901      	ldr	r1, [sp, #4]
 80023b8:	07c9      	lsls	r1, r1, #31
 80023ba:	d506      	bpl.n	80023ca <UART_RxISR_16BIT_FIFOEN+0xaa>
 80023bc:	621a      	str	r2, [r3, #32]
 80023be:	0022      	movs	r2, r4
 80023c0:	2302      	movs	r3, #2
 80023c2:	3290      	adds	r2, #144	@ 0x90
 80023c4:	6811      	ldr	r1, [r2, #0]
 80023c6:	430b      	orrs	r3, r1
 80023c8:	6013      	str	r3, [r2, #0]
 80023ca:	0027      	movs	r7, r4
 80023cc:	3790      	adds	r7, #144	@ 0x90
 80023ce:	683b      	ldr	r3, [r7, #0]
 80023d0:	2b00      	cmp	r3, #0
 80023d2:	d004      	beq.n	80023de <UART_RxISR_16BIT_FIFOEN+0xbe>
 80023d4:	0020      	movs	r0, r4
 80023d6:	f7ff fde5 	bl	8001fa4 <HAL_UART_ErrorCallback>
 80023da:	2300      	movs	r3, #0
 80023dc:	603b      	str	r3, [r7, #0]
 80023de:	0023      	movs	r3, r4
 80023e0:	335e      	adds	r3, #94	@ 0x5e
 80023e2:	881b      	ldrh	r3, [r3, #0]
 80023e4:	b299      	uxth	r1, r3
 80023e6:	2b00      	cmp	r3, #0
 80023e8:	d1b3      	bne.n	8002352 <UART_RxISR_16BIT_FIFOEN+0x32>
 80023ea:	f3ef 8510 	mrs	r5, PRIMASK
 80023ee:	3301      	adds	r3, #1
 80023f0:	f383 8810 	msr	PRIMASK, r3
 80023f4:	6820      	ldr	r0, [r4, #0]
 80023f6:	4f37      	ldr	r7, [pc, #220]	@ (80024d4 <UART_RxISR_16BIT_FIFOEN+0x1b4>)
 80023f8:	6802      	ldr	r2, [r0, #0]
 80023fa:	403a      	ands	r2, r7
 80023fc:	6002      	str	r2, [r0, #0]
 80023fe:	f385 8810 	msr	PRIMASK, r5
 8002402:	f3ef 8510 	mrs	r5, PRIMASK
 8002406:	f383 8810 	msr	PRIMASK, r3
 800240a:	6820      	ldr	r0, [r4, #0]
 800240c:	4f32      	ldr	r7, [pc, #200]	@ (80024d8 <UART_RxISR_16BIT_FIFOEN+0x1b8>)
 800240e:	6882      	ldr	r2, [r0, #8]
 8002410:	403a      	ands	r2, r7
 8002412:	6082      	str	r2, [r0, #8]
 8002414:	f385 8810 	msr	PRIMASK, r5
 8002418:	2220      	movs	r2, #32
 800241a:	6032      	str	r2, [r6, #0]
 800241c:	6822      	ldr	r2, [r4, #0]
 800241e:	6721      	str	r1, [r4, #112]	@ 0x70
 8002420:	6852      	ldr	r2, [r2, #4]
 8002422:	6761      	str	r1, [r4, #116]	@ 0x74
 8002424:	0212      	lsls	r2, r2, #8
 8002426:	d50a      	bpl.n	800243e <UART_RxISR_16BIT_FIFOEN+0x11e>
 8002428:	f3ef 8110 	mrs	r1, PRIMASK
 800242c:	f383 8810 	msr	PRIMASK, r3
 8002430:	6822      	ldr	r2, [r4, #0]
 8002432:	482a      	ldr	r0, [pc, #168]	@ (80024dc <UART_RxISR_16BIT_FIFOEN+0x1bc>)
 8002434:	6813      	ldr	r3, [r2, #0]
 8002436:	4003      	ands	r3, r0
 8002438:	6013      	str	r3, [r2, #0]
 800243a:	f381 8810 	msr	PRIMASK, r1
 800243e:	6ee3      	ldr	r3, [r4, #108]	@ 0x6c
 8002440:	2b01      	cmp	r3, #1
 8002442:	d13d      	bne.n	80024c0 <UART_RxISR_16BIT_FIFOEN+0x1a0>
 8002444:	2200      	movs	r2, #0
 8002446:	66e2      	str	r2, [r4, #108]	@ 0x6c
 8002448:	f3ef 8010 	mrs	r0, PRIMASK
 800244c:	f383 8810 	msr	PRIMASK, r3
 8002450:	6821      	ldr	r1, [r4, #0]
 8002452:	330f      	adds	r3, #15
 8002454:	680a      	ldr	r2, [r1, #0]
 8002456:	439a      	bics	r2, r3
 8002458:	600a      	str	r2, [r1, #0]
 800245a:	f380 8810 	msr	PRIMASK, r0
 800245e:	6822      	ldr	r2, [r4, #0]
 8002460:	69d1      	ldr	r1, [r2, #28]
 8002462:	4219      	tst	r1, r3
 8002464:	d000      	beq.n	8002468 <UART_RxISR_16BIT_FIFOEN+0x148>
 8002466:	6213      	str	r3, [r2, #32]
 8002468:	0023      	movs	r3, r4
 800246a:	335c      	adds	r3, #92	@ 0x5c
 800246c:	0020      	movs	r0, r4
 800246e:	8819      	ldrh	r1, [r3, #0]
 8002470:	f7ff fd99 	bl	8001fa6 <HAL_UARTEx_RxEventCallback>
 8002474:	0023      	movs	r3, r4
 8002476:	335e      	adds	r3, #94	@ 0x5e
 8002478:	881b      	ldrh	r3, [r3, #0]
 800247a:	b29a      	uxth	r2, r3
 800247c:	2b00      	cmp	r3, #0
 800247e:	d01d      	beq.n	80024bc <UART_RxISR_16BIT_FIFOEN+0x19c>
 8002480:	0023      	movs	r3, r4
 8002482:	3368      	adds	r3, #104	@ 0x68
 8002484:	881b      	ldrh	r3, [r3, #0]
 8002486:	4293      	cmp	r3, r2
 8002488:	d918      	bls.n	80024bc <UART_RxISR_16BIT_FIFOEN+0x19c>
 800248a:	f3ef 8010 	mrs	r0, PRIMASK
 800248e:	2201      	movs	r2, #1
 8002490:	f382 8810 	msr	PRIMASK, r2
 8002494:	6821      	ldr	r1, [r4, #0]
 8002496:	4d12      	ldr	r5, [pc, #72]	@ (80024e0 <UART_RxISR_16BIT_FIFOEN+0x1c0>)
 8002498:	688b      	ldr	r3, [r1, #8]
 800249a:	402b      	ands	r3, r5
 800249c:	608b      	str	r3, [r1, #8]
 800249e:	f380 8810 	msr	PRIMASK, r0
 80024a2:	4b10      	ldr	r3, [pc, #64]	@ (80024e4 <UART_RxISR_16BIT_FIFOEN+0x1c4>)
 80024a4:	6763      	str	r3, [r4, #116]	@ 0x74
 80024a6:	f3ef 8110 	mrs	r1, PRIMASK
 80024aa:	f382 8810 	msr	PRIMASK, r2
 80024ae:	2320      	movs	r3, #32
 80024b0:	6822      	ldr	r2, [r4, #0]
 80024b2:	6810      	ldr	r0, [r2, #0]
 80024b4:	4303      	orrs	r3, r0
 80024b6:	6013      	str	r3, [r2, #0]
 80024b8:	f381 8810 	msr	PRIMASK, r1
 80024bc:	b005      	add	sp, #20
 80024be:	bdf0      	pop	{r4, r5, r6, r7, pc}
 80024c0:	0020      	movs	r0, r4
 80024c2:	f7fd ffab 	bl	800041c <HAL_UART_RxCpltCallback>
 80024c6:	e7d5      	b.n	8002474 <UART_RxISR_16BIT_FIFOEN+0x154>
 80024c8:	2208      	movs	r2, #8
 80024ca:	6999      	ldr	r1, [r3, #24]
 80024cc:	430a      	orrs	r2, r1
 80024ce:	619a      	str	r2, [r3, #24]
 80024d0:	e7f4      	b.n	80024bc <UART_RxISR_16BIT_FIFOEN+0x19c>
 80024d2:	46c0      	nop			@ (mov r8, r8)
 80024d4:	fffffeff 	.word	0xfffffeff
 80024d8:	effffffe 	.word	0xeffffffe
 80024dc:	fbffffff 	.word	0xfbffffff
 80024e0:	efffffff 	.word	0xefffffff
 80024e4:	08002081 	.word	0x08002081

080024e8 <UART_SetConfig>:
 80024e8:	b570      	push	{r4, r5, r6, lr}
 80024ea:	0004      	movs	r4, r0
 80024ec:	6925      	ldr	r5, [r4, #16]
 80024ee:	68a1      	ldr	r1, [r4, #8]
 80024f0:	6803      	ldr	r3, [r0, #0]
 80024f2:	4329      	orrs	r1, r5
 80024f4:	6965      	ldr	r5, [r4, #20]
 80024f6:	69c2      	ldr	r2, [r0, #28]
 80024f8:	4329      	orrs	r1, r5
 80024fa:	6818      	ldr	r0, [r3, #0]
 80024fc:	4d50      	ldr	r5, [pc, #320]	@ (8002640 <UART_SetConfig+0x158>)
 80024fe:	4311      	orrs	r1, r2
 8002500:	4028      	ands	r0, r5
 8002502:	4301      	orrs	r1, r0
 8002504:	6019      	str	r1, [r3, #0]
 8002506:	6859      	ldr	r1, [r3, #4]
 8002508:	484e      	ldr	r0, [pc, #312]	@ (8002644 <UART_SetConfig+0x15c>)
 800250a:	6a25      	ldr	r5, [r4, #32]
 800250c:	4001      	ands	r1, r0
 800250e:	68e0      	ldr	r0, [r4, #12]
 8002510:	4301      	orrs	r1, r0
 8002512:	6059      	str	r1, [r3, #4]
 8002514:	69a1      	ldr	r1, [r4, #24]
 8002516:	6898      	ldr	r0, [r3, #8]
 8002518:	4329      	orrs	r1, r5
 800251a:	4d4b      	ldr	r5, [pc, #300]	@ (8002648 <UART_SetConfig+0x160>)
 800251c:	4028      	ands	r0, r5
 800251e:	4301      	orrs	r1, r0
 8002520:	200f      	movs	r0, #15
 8002522:	6099      	str	r1, [r3, #8]
 8002524:	6ad9      	ldr	r1, [r3, #44]	@ 0x2c
 8002526:	4381      	bics	r1, r0
 8002528:	6a60      	ldr	r0, [r4, #36]	@ 0x24
 800252a:	4301      	orrs	r1, r0
 800252c:	62d9      	str	r1, [r3, #44]	@ 0x2c
 800252e:	4947      	ldr	r1, [pc, #284]	@ (800264c <UART_SetConfig+0x164>)
 8002530:	428b      	cmp	r3, r1
 8002532:	d115      	bne.n	8002560 <UART_SetConfig+0x78>
 8002534:	2103      	movs	r1, #3
 8002536:	4b46      	ldr	r3, [pc, #280]	@ (8002650 <UART_SetConfig+0x168>)
 8002538:	6d5b      	ldr	r3, [r3, #84]	@ 0x54
 800253a:	400b      	ands	r3, r1
 800253c:	3b01      	subs	r3, #1
 800253e:	2b02      	cmp	r3, #2
 8002540:	d86f      	bhi.n	8002622 <UART_SetConfig+0x13a>
 8002542:	4944      	ldr	r1, [pc, #272]	@ (8002654 <UART_SetConfig+0x16c>)
 8002544:	5cc8      	ldrb	r0, [r1, r3]
 8002546:	2380      	movs	r3, #128	@ 0x80
 8002548:	021b      	lsls	r3, r3, #8
 800254a:	429a      	cmp	r2, r3
 800254c:	d137      	bne.n	80025be <UART_SetConfig+0xd6>
 800254e:	2808      	cmp	r0, #8
 8002550:	d865      	bhi.n	800261e <UART_SetConfig+0x136>
 8002552:	f7fd fdd9 	bl	8000108 <__gnu_thumb1_case_uqi>
 8002556:	646a      	.short	0x646a
 8002558:	6431640b 	.word	0x6431640b
 800255c:	6464      	.short	0x6464
 800255e:	14          	.byte	0x14
 800255f:	00          	.byte	0x00
 8002560:	493d      	ldr	r1, [pc, #244]	@ (8002658 <UART_SetConfig+0x170>)
 8002562:	185b      	adds	r3, r3, r1
 8002564:	1e59      	subs	r1, r3, #1
 8002566:	418b      	sbcs	r3, r1
 8002568:	0118      	lsls	r0, r3, #4
 800256a:	e7ec      	b.n	8002546 <UART_SetConfig+0x5e>
 800256c:	4b38      	ldr	r3, [pc, #224]	@ (8002650 <UART_SetConfig+0x168>)
 800256e:	483b      	ldr	r0, [pc, #236]	@ (800265c <UART_SetConfig+0x174>)
 8002570:	6819      	ldr	r1, [r3, #0]
 8002572:	0609      	lsls	r1, r1, #24
 8002574:	0f49      	lsrs	r1, r1, #29
 8002576:	3101      	adds	r1, #1
 8002578:	f7fd fdda 	bl	8000130 <__udivsi3>
 800257c:	0002      	movs	r2, r0
 800257e:	6a61      	ldr	r1, [r4, #36]	@ 0x24
 8002580:	4b37      	ldr	r3, [pc, #220]	@ (8002660 <UART_SetConfig+0x178>)
 8002582:	0049      	lsls	r1, r1, #1
 8002584:	0010      	movs	r0, r2
 8002586:	5ac9      	ldrh	r1, [r1, r3]
 8002588:	f7fd fdd2 	bl	8000130 <__udivsi3>
 800258c:	6865      	ldr	r5, [r4, #4]
 800258e:	0040      	lsls	r0, r0, #1
 8002590:	086b      	lsrs	r3, r5, #1
 8002592:	18c0      	adds	r0, r0, r3
 8002594:	0029      	movs	r1, r5
 8002596:	f7fd fdcb 	bl	8000130 <__udivsi3>
 800259a:	0002      	movs	r2, r0
 800259c:	4b31      	ldr	r3, [pc, #196]	@ (8002664 <UART_SetConfig+0x17c>)
 800259e:	3a10      	subs	r2, #16
 80025a0:	429a      	cmp	r2, r3
 80025a2:	d83c      	bhi.n	800261e <UART_SetConfig+0x136>
 80025a4:	230f      	movs	r3, #15
 80025a6:	0002      	movs	r2, r0
 80025a8:	0700      	lsls	r0, r0, #28
 80025aa:	439a      	bics	r2, r3
 80025ac:	b293      	uxth	r3, r2
 80025ae:	0f40      	lsrs	r0, r0, #29
 80025b0:	6822      	ldr	r2, [r4, #0]
 80025b2:	4303      	orrs	r3, r0
 80025b4:	60d3      	str	r3, [r2, #12]
 80025b6:	e03c      	b.n	8002632 <UART_SetConfig+0x14a>
 80025b8:	f7ff f800 	bl	80015bc <HAL_RCC_GetSysClockFreq>
 80025bc:	e037      	b.n	800262e <UART_SetConfig+0x146>
 80025be:	2808      	cmp	r0, #8
 80025c0:	d82d      	bhi.n	800261e <UART_SetConfig+0x136>
 80025c2:	f7fd fda1 	bl	8000108 <__gnu_thumb1_case_uqi>
 80025c6:	2c05      	.short	0x2c05
 80025c8:	2c262c0a 	.word	0x2c262c0a
 80025cc:	2c2c      	.short	0x2c2c
 80025ce:	29          	.byte	0x29
 80025cf:	00          	.byte	0x00
 80025d0:	f7ff f8dc 	bl	800178c <HAL_RCC_GetPCLK1Freq>
 80025d4:	2800      	cmp	r0, #0
 80025d6:	d02c      	beq.n	8002632 <UART_SetConfig+0x14a>
 80025d8:	e007      	b.n	80025ea <UART_SetConfig+0x102>
 80025da:	4b1d      	ldr	r3, [pc, #116]	@ (8002650 <UART_SetConfig+0x168>)
 80025dc:	481f      	ldr	r0, [pc, #124]	@ (800265c <UART_SetConfig+0x174>)
 80025de:	6819      	ldr	r1, [r3, #0]
 80025e0:	0609      	lsls	r1, r1, #24
 80025e2:	0f49      	lsrs	r1, r1, #29
 80025e4:	3101      	adds	r1, #1
 80025e6:	f7fd fda3 	bl	8000130 <__udivsi3>
 80025ea:	6a62      	ldr	r2, [r4, #36]	@ 0x24
 80025ec:	4b1c      	ldr	r3, [pc, #112]	@ (8002660 <UART_SetConfig+0x178>)
 80025ee:	0052      	lsls	r2, r2, #1
 80025f0:	5ad1      	ldrh	r1, [r2, r3]
 80025f2:	f7fd fd9d 	bl	8000130 <__udivsi3>
 80025f6:	6865      	ldr	r5, [r4, #4]
 80025f8:	086b      	lsrs	r3, r5, #1
 80025fa:	18c0      	adds	r0, r0, r3
 80025fc:	0029      	movs	r1, r5
 80025fe:	f7fd fd97 	bl	8000130 <__udivsi3>
 8002602:	0002      	movs	r2, r0
 8002604:	4b17      	ldr	r3, [pc, #92]	@ (8002664 <UART_SetConfig+0x17c>)
 8002606:	3a10      	subs	r2, #16
 8002608:	429a      	cmp	r2, r3
 800260a:	d808      	bhi.n	800261e <UART_SetConfig+0x136>
 800260c:	6823      	ldr	r3, [r4, #0]
 800260e:	60d8      	str	r0, [r3, #12]
 8002610:	e00f      	b.n	8002632 <UART_SetConfig+0x14a>
 8002612:	f7fe ffd3 	bl	80015bc <HAL_RCC_GetSysClockFreq>
 8002616:	e7dd      	b.n	80025d4 <UART_SetConfig+0xec>
 8002618:	2080      	movs	r0, #128	@ 0x80
 800261a:	0200      	lsls	r0, r0, #8
 800261c:	e7e5      	b.n	80025ea <UART_SetConfig+0x102>
 800261e:	2001      	movs	r0, #1
 8002620:	e008      	b.n	8002634 <UART_SetConfig+0x14c>
 8002622:	2380      	movs	r3, #128	@ 0x80
 8002624:	021b      	lsls	r3, r3, #8
 8002626:	429a      	cmp	r2, r3
 8002628:	d1d2      	bne.n	80025d0 <UART_SetConfig+0xe8>
 800262a:	f7ff f8af 	bl	800178c <HAL_RCC_GetPCLK1Freq>
 800262e:	1e02      	subs	r2, r0, #0
 8002630:	d1a5      	bne.n	800257e <UART_SetConfig+0x96>
 8002632:	2000      	movs	r0, #0
 8002634:	4b0c      	ldr	r3, [pc, #48]	@ (8002668 <UART_SetConfig+0x180>)
 8002636:	66a3      	str	r3, [r4, #104]	@ 0x68
 8002638:	2300      	movs	r3, #0
 800263a:	6763      	str	r3, [r4, #116]	@ 0x74
 800263c:	67a3      	str	r3, [r4, #120]	@ 0x78
 800263e:	bd70      	pop	{r4, r5, r6, pc}
 8002640:	cfff69f3 	.word	0xcfff69f3
 8002644:	ffffcfff 	.word	0xffffcfff
 8002648:	11fff4ff 	.word	0x11fff4ff
 800264c:	40013800 	.word	0x40013800
 8002650:	40021000 	.word	0x40021000
 8002654:	08002c70 	.word	0x08002c70
 8002658:	bfffbc00 	.word	0xbfffbc00
 800265c:	02dc6c00 	.word	0x02dc6c00
 8002660:	08002c74 	.word	0x08002c74
 8002664:	0000ffef 	.word	0x0000ffef
 8002668:	00010001 	.word	0x00010001

0800266c <UART_AdvFeatureConfig>:
 800266c:	6a83      	ldr	r3, [r0, #40]	@ 0x28
 800266e:	b530      	push	{r4, r5, lr}
 8002670:	071a      	lsls	r2, r3, #28
 8002672:	d506      	bpl.n	8002682 <UART_AdvFeatureConfig+0x16>
 8002674:	6801      	ldr	r1, [r0, #0]
 8002676:	4c28      	ldr	r4, [pc, #160]	@ (8002718 <UART_AdvFeatureConfig+0xac>)
 8002678:	684a      	ldr	r2, [r1, #4]
 800267a:	4022      	ands	r2, r4
 800267c:	6b84      	ldr	r4, [r0, #56]	@ 0x38
 800267e:	4322      	orrs	r2, r4
 8002680:	604a      	str	r2, [r1, #4]
 8002682:	07da      	lsls	r2, r3, #31
 8002684:	d506      	bpl.n	8002694 <UART_AdvFeatureConfig+0x28>
 8002686:	6801      	ldr	r1, [r0, #0]
 8002688:	4c24      	ldr	r4, [pc, #144]	@ (800271c <UART_AdvFeatureConfig+0xb0>)
 800268a:	684a      	ldr	r2, [r1, #4]
 800268c:	4022      	ands	r2, r4
 800268e:	6ac4      	ldr	r4, [r0, #44]	@ 0x2c
 8002690:	4322      	orrs	r2, r4
 8002692:	604a      	str	r2, [r1, #4]
 8002694:	079a      	lsls	r2, r3, #30
 8002696:	d506      	bpl.n	80026a6 <UART_AdvFeatureConfig+0x3a>
 8002698:	6801      	ldr	r1, [r0, #0]
 800269a:	4c21      	ldr	r4, [pc, #132]	@ (8002720 <UART_AdvFeatureConfig+0xb4>)
 800269c:	684a      	ldr	r2, [r1, #4]
 800269e:	4022      	ands	r2, r4
 80026a0:	6b04      	ldr	r4, [r0, #48]	@ 0x30
 80026a2:	4322      	orrs	r2, r4
 80026a4:	604a      	str	r2, [r1, #4]
 80026a6:	075a      	lsls	r2, r3, #29
 80026a8:	d506      	bpl.n	80026b8 <UART_AdvFeatureConfig+0x4c>
 80026aa:	6801      	ldr	r1, [r0, #0]
 80026ac:	4c1d      	ldr	r4, [pc, #116]	@ (8002724 <UART_AdvFeatureConfig+0xb8>)
 80026ae:	684a      	ldr	r2, [r1, #4]
 80026b0:	4022      	ands	r2, r4
 80026b2:	6b44      	ldr	r4, [r0, #52]	@ 0x34
 80026b4:	4322      	orrs	r2, r4
 80026b6:	604a      	str	r2, [r1, #4]
 80026b8:	06da      	lsls	r2, r3, #27
 80026ba:	d506      	bpl.n	80026ca <UART_AdvFeatureConfig+0x5e>
 80026bc:	6801      	ldr	r1, [r0, #0]
 80026be:	4c1a      	ldr	r4, [pc, #104]	@ (8002728 <UART_AdvFeatureConfig+0xbc>)
 80026c0:	688a      	ldr	r2, [r1, #8]
 80026c2:	4022      	ands	r2, r4
 80026c4:	6bc4      	ldr	r4, [r0, #60]	@ 0x3c
 80026c6:	4322      	orrs	r2, r4
 80026c8:	608a      	str	r2, [r1, #8]
 80026ca:	069a      	lsls	r2, r3, #26
 80026cc:	d506      	bpl.n	80026dc <UART_AdvFeatureConfig+0x70>
 80026ce:	6801      	ldr	r1, [r0, #0]
 80026d0:	4c16      	ldr	r4, [pc, #88]	@ (800272c <UART_AdvFeatureConfig+0xc0>)
 80026d2:	688a      	ldr	r2, [r1, #8]
 80026d4:	4022      	ands	r2, r4
 80026d6:	6c04      	ldr	r4, [r0, #64]	@ 0x40
 80026d8:	4322      	orrs	r2, r4
 80026da:	608a      	str	r2, [r1, #8]
 80026dc:	065a      	lsls	r2, r3, #25
 80026de:	d510      	bpl.n	8002702 <UART_AdvFeatureConfig+0x96>
 80026e0:	6801      	ldr	r1, [r0, #0]
 80026e2:	4d13      	ldr	r5, [pc, #76]	@ (8002730 <UART_AdvFeatureConfig+0xc4>)
 80026e4:	684a      	ldr	r2, [r1, #4]
 80026e6:	6c44      	ldr	r4, [r0, #68]	@ 0x44
 80026e8:	402a      	ands	r2, r5
 80026ea:	4322      	orrs	r2, r4
 80026ec:	604a      	str	r2, [r1, #4]
 80026ee:	2280      	movs	r2, #128	@ 0x80
 80026f0:	0352      	lsls	r2, r2, #13
 80026f2:	4294      	cmp	r4, r2
 80026f4:	d105      	bne.n	8002702 <UART_AdvFeatureConfig+0x96>
 80026f6:	684a      	ldr	r2, [r1, #4]
 80026f8:	4c0e      	ldr	r4, [pc, #56]	@ (8002734 <UART_AdvFeatureConfig+0xc8>)
 80026fa:	4022      	ands	r2, r4
 80026fc:	6c84      	ldr	r4, [r0, #72]	@ 0x48
 80026fe:	4322      	orrs	r2, r4
 8002700:	604a      	str	r2, [r1, #4]
 8002702:	061b      	lsls	r3, r3, #24
 8002704:	d506      	bpl.n	8002714 <UART_AdvFeatureConfig+0xa8>
 8002706:	6802      	ldr	r2, [r0, #0]
 8002708:	490b      	ldr	r1, [pc, #44]	@ (8002738 <UART_AdvFeatureConfig+0xcc>)
 800270a:	6853      	ldr	r3, [r2, #4]
 800270c:	400b      	ands	r3, r1
 800270e:	6cc1      	ldr	r1, [r0, #76]	@ 0x4c
 8002710:	430b      	orrs	r3, r1
 8002712:	6053      	str	r3, [r2, #4]
 8002714:	bd30      	pop	{r4, r5, pc}
 8002716:	46c0      	nop			@ (mov r8, r8)
 8002718:	ffff7fff 	.word	0xffff7fff
 800271c:	fffdffff 	.word	0xfffdffff
 8002720:	fffeffff 	.word	0xfffeffff
 8002724:	fffbffff 	.word	0xfffbffff
 8002728:	ffffefff 	.word	0xffffefff
 800272c:	ffffdfff 	.word	0xffffdfff
 8002730:	ffefffff 	.word	0xffefffff
 8002734:	ff9fffff 	.word	0xff9fffff
 8002738:	fff7ffff 	.word	0xfff7ffff

0800273c <UART_WaitOnFlagUntilTimeout>:
 800273c:	b5f7      	push	{r0, r1, r2, r4, r5, r6, r7, lr}
 800273e:	0004      	movs	r4, r0
 8002740:	000d      	movs	r5, r1
 8002742:	0017      	movs	r7, r2
 8002744:	9300      	str	r3, [sp, #0]
 8002746:	6822      	ldr	r2, [r4, #0]
 8002748:	69d3      	ldr	r3, [r2, #28]
 800274a:	402b      	ands	r3, r5
 800274c:	1b5b      	subs	r3, r3, r5
 800274e:	4259      	negs	r1, r3
 8002750:	414b      	adcs	r3, r1
 8002752:	42bb      	cmp	r3, r7
 8002754:	d001      	beq.n	800275a <UART_WaitOnFlagUntilTimeout+0x1e>
 8002756:	2000      	movs	r0, #0
 8002758:	e026      	b.n	80027a8 <UART_WaitOnFlagUntilTimeout+0x6c>
 800275a:	9b08      	ldr	r3, [sp, #32]
 800275c:	3301      	adds	r3, #1
 800275e:	d0f3      	beq.n	8002748 <UART_WaitOnFlagUntilTimeout+0xc>
 8002760:	f7fe fc0e 	bl	8000f80 <HAL_GetTick>
 8002764:	9b00      	ldr	r3, [sp, #0]
 8002766:	1ac0      	subs	r0, r0, r3
 8002768:	9b08      	ldr	r3, [sp, #32]
 800276a:	4298      	cmp	r0, r3
 800276c:	d82d      	bhi.n	80027ca <UART_WaitOnFlagUntilTimeout+0x8e>
 800276e:	2b00      	cmp	r3, #0
 8002770:	d02b      	beq.n	80027ca <UART_WaitOnFlagUntilTimeout+0x8e>
 8002772:	6823      	ldr	r3, [r4, #0]
 8002774:	681a      	ldr	r2, [r3, #0]
 8002776:	0752      	lsls	r2, r2, #29
 8002778:	d5e5      	bpl.n	8002746 <UART_WaitOnFlagUntilTimeout+0xa>
 800277a:	002a      	movs	r2, r5
 800277c:	2140      	movs	r1, #64	@ 0x40
 800277e:	3a40      	subs	r2, #64	@ 0x40
 8002780:	438a      	bics	r2, r1
 8002782:	d0e0      	beq.n	8002746 <UART_WaitOnFlagUntilTimeout+0xa>
 8002784:	69da      	ldr	r2, [r3, #28]
 8002786:	2608      	movs	r6, #8
 8002788:	0011      	movs	r1, r2
 800278a:	4031      	ands	r1, r6
 800278c:	9101      	str	r1, [sp, #4]
 800278e:	4232      	tst	r2, r6
 8002790:	d00b      	beq.n	80027aa <UART_WaitOnFlagUntilTimeout+0x6e>
 8002792:	0020      	movs	r0, r4
 8002794:	621e      	str	r6, [r3, #32]
 8002796:	f7ff fbd3 	bl	8001f40 <UART_EndRxTransfer>
 800279a:	0023      	movs	r3, r4
 800279c:	3390      	adds	r3, #144	@ 0x90
 800279e:	601e      	str	r6, [r3, #0]
 80027a0:	2300      	movs	r3, #0
 80027a2:	2001      	movs	r0, #1
 80027a4:	3484      	adds	r4, #132	@ 0x84
 80027a6:	7023      	strb	r3, [r4, #0]
 80027a8:	bdfe      	pop	{r1, r2, r3, r4, r5, r6, r7, pc}
 80027aa:	2280      	movs	r2, #128	@ 0x80
 80027ac:	69d9      	ldr	r1, [r3, #28]
 80027ae:	0112      	lsls	r2, r2, #4
 80027b0:	4211      	tst	r1, r2
 80027b2:	d0c8      	beq.n	8002746 <UART_WaitOnFlagUntilTimeout+0xa>
 80027b4:	621a      	str	r2, [r3, #32]
 80027b6:	0020      	movs	r0, r4
 80027b8:	f7ff fbc2 	bl	8001f40 <UART_EndRxTransfer>
 80027bc:	0023      	movs	r3, r4
 80027be:	2220      	movs	r2, #32
 80027c0:	3390      	adds	r3, #144	@ 0x90
 80027c2:	601a      	str	r2, [r3, #0]
 80027c4:	9b01      	ldr	r3, [sp, #4]
 80027c6:	3484      	adds	r4, #132	@ 0x84
 80027c8:	7023      	strb	r3, [r4, #0]
 80027ca:	2003      	movs	r0, #3
 80027cc:	e7ec      	b.n	80027a8 <UART_WaitOnFlagUntilTimeout+0x6c>

080027ce <HAL_UART_Transmit>:
 80027ce:	b5f0      	push	{r4, r5, r6, r7, lr}
 80027d0:	0017      	movs	r7, r2
 80027d2:	0002      	movs	r2, r0
 80027d4:	b087      	sub	sp, #28
 80027d6:	3288      	adds	r2, #136	@ 0x88
 80027d8:	9305      	str	r3, [sp, #20]
 80027da:	6813      	ldr	r3, [r2, #0]
 80027dc:	0004      	movs	r4, r0
 80027de:	000d      	movs	r5, r1
 80027e0:	2002      	movs	r0, #2
 80027e2:	2b20      	cmp	r3, #32
 80027e4:	d139      	bne.n	800285a <HAL_UART_Transmit+0x8c>
 80027e6:	3801      	subs	r0, #1
 80027e8:	2900      	cmp	r1, #0
 80027ea:	d036      	beq.n	800285a <HAL_UART_Transmit+0x8c>
 80027ec:	2f00      	cmp	r7, #0
 80027ee:	d034      	beq.n	800285a <HAL_UART_Transmit+0x8c>
 80027f0:	2380      	movs	r3, #128	@ 0x80
 80027f2:	68a1      	ldr	r1, [r4, #8]
 80027f4:	015b      	lsls	r3, r3, #5
 80027f6:	4299      	cmp	r1, r3
 80027f8:	d104      	bne.n	8002804 <HAL_UART_Transmit+0x36>
 80027fa:	6923      	ldr	r3, [r4, #16]
 80027fc:	2b00      	cmp	r3, #0
 80027fe:	d101      	bne.n	8002804 <HAL_UART_Transmit+0x36>
 8002800:	4205      	tst	r5, r0
 8002802:	d12a      	bne.n	800285a <HAL_UART_Transmit+0x8c>
 8002804:	0023      	movs	r3, r4
 8002806:	2600      	movs	r6, #0
 8002808:	3390      	adds	r3, #144	@ 0x90
 800280a:	601e      	str	r6, [r3, #0]
 800280c:	2321      	movs	r3, #33	@ 0x21
 800280e:	6013      	str	r3, [r2, #0]
 8002810:	f7fe fbb6 	bl	8000f80 <HAL_GetTick>
 8002814:	0023      	movs	r3, r4
 8002816:	3354      	adds	r3, #84	@ 0x54
 8002818:	801f      	strh	r7, [r3, #0]
 800281a:	3302      	adds	r3, #2
 800281c:	9303      	str	r3, [sp, #12]
 800281e:	801f      	strh	r7, [r3, #0]
 8002820:	2380      	movs	r3, #128	@ 0x80
 8002822:	68a2      	ldr	r2, [r4, #8]
 8002824:	9004      	str	r0, [sp, #16]
 8002826:	015b      	lsls	r3, r3, #5
 8002828:	429a      	cmp	r2, r3
 800282a:	d104      	bne.n	8002836 <HAL_UART_Transmit+0x68>
 800282c:	6923      	ldr	r3, [r4, #16]
 800282e:	42b3      	cmp	r3, r6
 8002830:	d101      	bne.n	8002836 <HAL_UART_Transmit+0x68>
 8002832:	002e      	movs	r6, r5
 8002834:	001d      	movs	r5, r3
 8002836:	0023      	movs	r3, r4
 8002838:	3356      	adds	r3, #86	@ 0x56
 800283a:	881b      	ldrh	r3, [r3, #0]
 800283c:	b29a      	uxth	r2, r3
 800283e:	2b00      	cmp	r3, #0
 8002840:	d10d      	bne.n	800285e <HAL_UART_Transmit+0x90>
 8002842:	9b05      	ldr	r3, [sp, #20]
 8002844:	0020      	movs	r0, r4
 8002846:	9300      	str	r3, [sp, #0]
 8002848:	2140      	movs	r1, #64	@ 0x40
 800284a:	9b04      	ldr	r3, [sp, #16]
 800284c:	f7ff ff76 	bl	800273c <UART_WaitOnFlagUntilTimeout>
 8002850:	2320      	movs	r3, #32
 8002852:	3488      	adds	r4, #136	@ 0x88
 8002854:	6023      	str	r3, [r4, #0]
 8002856:	2800      	cmp	r0, #0
 8002858:	d10e      	bne.n	8002878 <HAL_UART_Transmit+0xaa>
 800285a:	b007      	add	sp, #28
 800285c:	bdf0      	pop	{r4, r5, r6, r7, pc}
 800285e:	9b05      	ldr	r3, [sp, #20]
 8002860:	2200      	movs	r2, #0
 8002862:	9300      	str	r3, [sp, #0]
 8002864:	2180      	movs	r1, #128	@ 0x80
 8002866:	0020      	movs	r0, r4
 8002868:	9b04      	ldr	r3, [sp, #16]
 800286a:	f7ff ff67 	bl	800273c <UART_WaitOnFlagUntilTimeout>
 800286e:	2800      	cmp	r0, #0
 8002870:	d004      	beq.n	800287c <HAL_UART_Transmit+0xae>
 8002872:	2320      	movs	r3, #32
 8002874:	3488      	adds	r4, #136	@ 0x88
 8002876:	6023      	str	r3, [r4, #0]
 8002878:	2003      	movs	r0, #3
 800287a:	e7ee      	b.n	800285a <HAL_UART_Transmit+0x8c>
 800287c:	6822      	ldr	r2, [r4, #0]
 800287e:	2d00      	cmp	r5, #0
 8002880:	d10b      	bne.n	800289a <HAL_UART_Transmit+0xcc>
 8002882:	8833      	ldrh	r3, [r6, #0]
 8002884:	3602      	adds	r6, #2
 8002886:	05db      	lsls	r3, r3, #23
 8002888:	0ddb      	lsrs	r3, r3, #23
 800288a:	6293      	str	r3, [r2, #40]	@ 0x28
 800288c:	9b03      	ldr	r3, [sp, #12]
 800288e:	9a03      	ldr	r2, [sp, #12]
 8002890:	881b      	ldrh	r3, [r3, #0]
 8002892:	3b01      	subs	r3, #1
 8002894:	b29b      	uxth	r3, r3
 8002896:	8013      	strh	r3, [r2, #0]
 8002898:	e7cd      	b.n	8002836 <HAL_UART_Transmit+0x68>
 800289a:	782b      	ldrb	r3, [r5, #0]
 800289c:	3501      	adds	r5, #1
 800289e:	6293      	str	r3, [r2, #40]	@ 0x28
 80028a0:	e7f4      	b.n	800288c <HAL_UART_Transmit+0xbe>
	...

080028a4 <UART_CheckIdleState>:
 80028a4:	0003      	movs	r3, r0
 80028a6:	b573      	push	{r0, r1, r4, r5, r6, lr}
 80028a8:	2600      	movs	r6, #0
 80028aa:	0004      	movs	r4, r0
 80028ac:	3390      	adds	r3, #144	@ 0x90
 80028ae:	601e      	str	r6, [r3, #0]
 80028b0:	f7fe fb66 	bl	8000f80 <HAL_GetTick>
 80028b4:	6823      	ldr	r3, [r4, #0]
 80028b6:	0005      	movs	r5, r0
 80028b8:	681b      	ldr	r3, [r3, #0]
 80028ba:	071b      	lsls	r3, r3, #28
 80028bc:	d51f      	bpl.n	80028fe <UART_CheckIdleState+0x5a>
 80028be:	2180      	movs	r1, #128	@ 0x80
 80028c0:	4b28      	ldr	r3, [pc, #160]	@ (8002964 <UART_CheckIdleState+0xc0>)
 80028c2:	0032      	movs	r2, r6
 80028c4:	9300      	str	r3, [sp, #0]
 80028c6:	0389      	lsls	r1, r1, #14
 80028c8:	0003      	movs	r3, r0
 80028ca:	0020      	movs	r0, r4
 80028cc:	f7ff ff36 	bl	800273c <UART_WaitOnFlagUntilTimeout>
 80028d0:	42b0      	cmp	r0, r6
 80028d2:	d014      	beq.n	80028fe <UART_CheckIdleState+0x5a>
 80028d4:	f3ef 8110 	mrs	r1, PRIMASK
 80028d8:	2301      	movs	r3, #1
 80028da:	f383 8810 	msr	PRIMASK, r3
 80028de:	2080      	movs	r0, #128	@ 0x80
 80028e0:	6822      	ldr	r2, [r4, #0]
 80028e2:	6813      	ldr	r3, [r2, #0]
 80028e4:	4383      	bics	r3, r0
 80028e6:	6013      	str	r3, [r2, #0]
 80028e8:	f381 8810 	msr	PRIMASK, r1
 80028ec:	0023      	movs	r3, r4
 80028ee:	2220      	movs	r2, #32
 80028f0:	3388      	adds	r3, #136	@ 0x88
 80028f2:	601a      	str	r2, [r3, #0]
 80028f4:	2003      	movs	r0, #3
 80028f6:	2300      	movs	r3, #0
 80028f8:	3484      	adds	r4, #132	@ 0x84
 80028fa:	7023      	strb	r3, [r4, #0]
 80028fc:	bd76      	pop	{r1, r2, r4, r5, r6, pc}
 80028fe:	0026      	movs	r6, r4
 8002900:	6823      	ldr	r3, [r4, #0]
 8002902:	368c      	adds	r6, #140	@ 0x8c
 8002904:	681b      	ldr	r3, [r3, #0]
 8002906:	075b      	lsls	r3, r3, #29
 8002908:	d523      	bpl.n	8002952 <UART_CheckIdleState+0xae>
 800290a:	2180      	movs	r1, #128	@ 0x80
 800290c:	4b15      	ldr	r3, [pc, #84]	@ (8002964 <UART_CheckIdleState+0xc0>)
 800290e:	2200      	movs	r2, #0
 8002910:	9300      	str	r3, [sp, #0]
 8002912:	0020      	movs	r0, r4
 8002914:	002b      	movs	r3, r5
 8002916:	03c9      	lsls	r1, r1, #15
 8002918:	f7ff ff10 	bl	800273c <UART_WaitOnFlagUntilTimeout>
 800291c:	2800      	cmp	r0, #0
 800291e:	d018      	beq.n	8002952 <UART_CheckIdleState+0xae>
 8002920:	f3ef 8010 	mrs	r0, PRIMASK
 8002924:	2201      	movs	r2, #1
 8002926:	f382 8810 	msr	PRIMASK, r2
 800292a:	6821      	ldr	r1, [r4, #0]
 800292c:	4d0e      	ldr	r5, [pc, #56]	@ (8002968 <UART_CheckIdleState+0xc4>)
 800292e:	680b      	ldr	r3, [r1, #0]
 8002930:	402b      	ands	r3, r5
 8002932:	600b      	str	r3, [r1, #0]
 8002934:	f380 8810 	msr	PRIMASK, r0
 8002938:	f3ef 8010 	mrs	r0, PRIMASK
 800293c:	f382 8810 	msr	PRIMASK, r2
 8002940:	6821      	ldr	r1, [r4, #0]
 8002942:	688b      	ldr	r3, [r1, #8]
 8002944:	4393      	bics	r3, r2
 8002946:	608b      	str	r3, [r1, #8]
 8002948:	f380 8810 	msr	PRIMASK, r0
 800294c:	2320      	movs	r3, #32
 800294e:	6033      	str	r3, [r6, #0]
 8002950:	e7d0      	b.n	80028f4 <UART_CheckIdleState+0x50>
 8002952:	0023      	movs	r3, r4
 8002954:	2220      	movs	r2, #32
 8002956:	2000      	movs	r0, #0
 8002958:	3388      	adds	r3, #136	@ 0x88
 800295a:	601a      	str	r2, [r3, #0]
 800295c:	6032      	str	r2, [r6, #0]
 800295e:	66e0      	str	r0, [r4, #108]	@ 0x6c
 8002960:	6720      	str	r0, [r4, #112]	@ 0x70
 8002962:	e7c8      	b.n	80028f6 <UART_CheckIdleState+0x52>
 8002964:	01ffffff 	.word	0x01ffffff
 8002968:	fffffedf 	.word	0xfffffedf

0800296c <UART_Start_Receive_IT>:
 800296c:	0003      	movs	r3, r0
 800296e:	335c      	adds	r3, #92	@ 0x5c
 8002970:	b570      	push	{r4, r5, r6, lr}
 8002972:	6581      	str	r1, [r0, #88]	@ 0x58
 8002974:	2480      	movs	r4, #128	@ 0x80
 8002976:	801a      	strh	r2, [r3, #0]
 8002978:	805a      	strh	r2, [r3, #2]
 800297a:	2300      	movs	r3, #0
 800297c:	6881      	ldr	r1, [r0, #8]
 800297e:	6743      	str	r3, [r0, #116]	@ 0x74
 8002980:	0164      	lsls	r4, r4, #5
 8002982:	42a1      	cmp	r1, r4
 8002984:	d13c      	bne.n	8002a00 <UART_Start_Receive_IT+0x94>
 8002986:	6903      	ldr	r3, [r0, #16]
 8002988:	4259      	negs	r1, r3
 800298a:	414b      	adcs	r3, r1
 800298c:	021b      	lsls	r3, r3, #8
 800298e:	33ff      	adds	r3, #255	@ 0xff
 8002990:	0001      	movs	r1, r0
 8002992:	3160      	adds	r1, #96	@ 0x60
 8002994:	800b      	strh	r3, [r1, #0]
 8002996:	0003      	movs	r3, r0
 8002998:	2100      	movs	r1, #0
 800299a:	3390      	adds	r3, #144	@ 0x90
 800299c:	6019      	str	r1, [r3, #0]
 800299e:	3122      	adds	r1, #34	@ 0x22
 80029a0:	3b04      	subs	r3, #4
 80029a2:	6019      	str	r1, [r3, #0]
 80029a4:	f3ef 8410 	mrs	r4, PRIMASK
 80029a8:	2301      	movs	r3, #1
 80029aa:	f383 8810 	msr	PRIMASK, r3
 80029ae:	6801      	ldr	r1, [r0, #0]
 80029b0:	688d      	ldr	r5, [r1, #8]
 80029b2:	432b      	orrs	r3, r5
 80029b4:	608b      	str	r3, [r1, #8]
 80029b6:	f384 8810 	msr	PRIMASK, r4
 80029ba:	2580      	movs	r5, #128	@ 0x80
 80029bc:	2180      	movs	r1, #128	@ 0x80
 80029be:	6e46      	ldr	r6, [r0, #100]	@ 0x64
 80029c0:	6884      	ldr	r4, [r0, #8]
 80029c2:	6903      	ldr	r3, [r0, #16]
 80029c4:	05ad      	lsls	r5, r5, #22
 80029c6:	0149      	lsls	r1, r1, #5
 80029c8:	42ae      	cmp	r6, r5
 80029ca:	d13f      	bne.n	8002a4c <UART_Start_Receive_IT+0xe0>
 80029cc:	0005      	movs	r5, r0
 80029ce:	3568      	adds	r5, #104	@ 0x68
 80029d0:	882d      	ldrh	r5, [r5, #0]
 80029d2:	4295      	cmp	r5, r2
 80029d4:	d83a      	bhi.n	8002a4c <UART_Start_Receive_IT+0xe0>
 80029d6:	428c      	cmp	r4, r1
 80029d8:	d133      	bne.n	8002a42 <UART_Start_Receive_IT+0xd6>
 80029da:	2b00      	cmp	r3, #0
 80029dc:	d122      	bne.n	8002a24 <UART_Start_Receive_IT+0xb8>
 80029de:	4b2c      	ldr	r3, [pc, #176]	@ (8002a90 <UART_Start_Receive_IT+0x124>)
 80029e0:	6743      	str	r3, [r0, #116]	@ 0x74
 80029e2:	f3ef 8110 	mrs	r1, PRIMASK
 80029e6:	2301      	movs	r3, #1
 80029e8:	f383 8810 	msr	PRIMASK, r3
 80029ec:	2380      	movs	r3, #128	@ 0x80
 80029ee:	6802      	ldr	r2, [r0, #0]
 80029f0:	055b      	lsls	r3, r3, #21
 80029f2:	6890      	ldr	r0, [r2, #8]
 80029f4:	4303      	orrs	r3, r0
 80029f6:	6093      	str	r3, [r2, #8]
 80029f8:	f381 8810 	msr	PRIMASK, r1
 80029fc:	2000      	movs	r0, #0
 80029fe:	bd70      	pop	{r4, r5, r6, pc}
 8002a00:	2900      	cmp	r1, #0
 8002a02:	d105      	bne.n	8002a10 <UART_Start_Receive_IT+0xa4>
 8002a04:	6901      	ldr	r1, [r0, #16]
 8002a06:	23ff      	movs	r3, #255	@ 0xff
 8002a08:	2900      	cmp	r1, #0
 8002a0a:	d0c1      	beq.n	8002990 <UART_Start_Receive_IT+0x24>
 8002a0c:	3b80      	subs	r3, #128	@ 0x80
 8002a0e:	e7bf      	b.n	8002990 <UART_Start_Receive_IT+0x24>
 8002a10:	2480      	movs	r4, #128	@ 0x80
 8002a12:	0564      	lsls	r4, r4, #21
 8002a14:	42a1      	cmp	r1, r4
 8002a16:	d1bb      	bne.n	8002990 <UART_Start_Receive_IT+0x24>
 8002a18:	6901      	ldr	r1, [r0, #16]
 8002a1a:	237f      	movs	r3, #127	@ 0x7f
 8002a1c:	2900      	cmp	r1, #0
 8002a1e:	d0b7      	beq.n	8002990 <UART_Start_Receive_IT+0x24>
 8002a20:	3b40      	subs	r3, #64	@ 0x40
 8002a22:	e7b5      	b.n	8002990 <UART_Start_Receive_IT+0x24>
 8002a24:	4b1b      	ldr	r3, [pc, #108]	@ (8002a94 <UART_Start_Receive_IT+0x128>)
 8002a26:	6743      	str	r3, [r0, #116]	@ 0x74
 8002a28:	f3ef 8110 	mrs	r1, PRIMASK
 8002a2c:	2301      	movs	r3, #1
 8002a2e:	f383 8810 	msr	PRIMASK, r3
 8002a32:	6802      	ldr	r2, [r0, #0]
 8002a34:	33ff      	adds	r3, #255	@ 0xff
 8002a36:	6814      	ldr	r4, [r2, #0]
 8002a38:	4323      	orrs	r3, r4
 8002a3a:	6013      	str	r3, [r2, #0]
 8002a3c:	f381 8810 	msr	PRIMASK, r1
 8002a40:	e7cf      	b.n	80029e2 <UART_Start_Receive_IT+0x76>
 8002a42:	4a14      	ldr	r2, [pc, #80]	@ (8002a94 <UART_Start_Receive_IT+0x128>)
 8002a44:	6742      	str	r2, [r0, #116]	@ 0x74
 8002a46:	2b00      	cmp	r3, #0
 8002a48:	d0cb      	beq.n	80029e2 <UART_Start_Receive_IT+0x76>
 8002a4a:	e7ed      	b.n	8002a28 <UART_Start_Receive_IT+0xbc>
 8002a4c:	428c      	cmp	r4, r1
 8002a4e:	d11a      	bne.n	8002a86 <UART_Start_Receive_IT+0x11a>
 8002a50:	2b00      	cmp	r3, #0
 8002a52:	d10a      	bne.n	8002a6a <UART_Start_Receive_IT+0xfe>
 8002a54:	4b10      	ldr	r3, [pc, #64]	@ (8002a98 <UART_Start_Receive_IT+0x12c>)
 8002a56:	6743      	str	r3, [r0, #116]	@ 0x74
 8002a58:	f3ef 8110 	mrs	r1, PRIMASK
 8002a5c:	2301      	movs	r3, #1
 8002a5e:	f383 8810 	msr	PRIMASK, r3
 8002a62:	6802      	ldr	r2, [r0, #0]
 8002a64:	331f      	adds	r3, #31
 8002a66:	6810      	ldr	r0, [r2, #0]
 8002a68:	e00a      	b.n	8002a80 <UART_Start_Receive_IT+0x114>
 8002a6a:	4b0c      	ldr	r3, [pc, #48]	@ (8002a9c <UART_Start_Receive_IT+0x130>)
 8002a6c:	6743      	str	r3, [r0, #116]	@ 0x74
 8002a6e:	f3ef 8110 	mrs	r1, PRIMASK
 8002a72:	2301      	movs	r3, #1
 8002a74:	f383 8810 	msr	PRIMASK, r3
 8002a78:	6802      	ldr	r2, [r0, #0]
 8002a7a:	3320      	adds	r3, #32
 8002a7c:	6810      	ldr	r0, [r2, #0]
 8002a7e:	33ff      	adds	r3, #255	@ 0xff
 8002a80:	4303      	orrs	r3, r0
 8002a82:	6013      	str	r3, [r2, #0]
 8002a84:	e7b8      	b.n	80029f8 <UART_Start_Receive_IT+0x8c>
 8002a86:	4a05      	ldr	r2, [pc, #20]	@ (8002a9c <UART_Start_Receive_IT+0x130>)
 8002a88:	6742      	str	r2, [r0, #116]	@ 0x74
 8002a8a:	2b00      	cmp	r3, #0
 8002a8c:	d1ef      	bne.n	8002a6e <UART_Start_Receive_IT+0x102>
 8002a8e:	e7e3      	b.n	8002a58 <UART_Start_Receive_IT+0xec>
 8002a90:	08002321 	.word	0x08002321
 8002a94:	08002155 	.word	0x08002155
 8002a98:	08002081 	.word	0x08002081
 8002a9c:	08001fa9 	.word	0x08001fa9

08002aa0 <HAL_UART_Receive_IT>:
 8002aa0:	0003      	movs	r3, r0
 8002aa2:	308c      	adds	r0, #140	@ 0x8c
 8002aa4:	b570      	push	{r4, r5, r6, lr}
 8002aa6:	6804      	ldr	r4, [r0, #0]
 8002aa8:	2002      	movs	r0, #2
 8002aaa:	2c20      	cmp	r4, #32
 8002aac:	d125      	bne.n	8002afa <HAL_UART_Receive_IT+0x5a>
 8002aae:	3801      	subs	r0, #1
 8002ab0:	2900      	cmp	r1, #0
 8002ab2:	d022      	beq.n	8002afa <HAL_UART_Receive_IT+0x5a>
 8002ab4:	2a00      	cmp	r2, #0
 8002ab6:	d020      	beq.n	8002afa <HAL_UART_Receive_IT+0x5a>
 8002ab8:	2080      	movs	r0, #128	@ 0x80
 8002aba:	689c      	ldr	r4, [r3, #8]
 8002abc:	0140      	lsls	r0, r0, #5
 8002abe:	4284      	cmp	r4, r0
 8002ac0:	d105      	bne.n	8002ace <HAL_UART_Receive_IT+0x2e>
 8002ac2:	6918      	ldr	r0, [r3, #16]
 8002ac4:	2800      	cmp	r0, #0
 8002ac6:	d102      	bne.n	8002ace <HAL_UART_Receive_IT+0x2e>
 8002ac8:	3001      	adds	r0, #1
 8002aca:	4201      	tst	r1, r0
 8002acc:	d115      	bne.n	8002afa <HAL_UART_Receive_IT+0x5a>
 8002ace:	2000      	movs	r0, #0
 8002ad0:	66d8      	str	r0, [r3, #108]	@ 0x6c
 8002ad2:	6818      	ldr	r0, [r3, #0]
 8002ad4:	6840      	ldr	r0, [r0, #4]
 8002ad6:	0200      	lsls	r0, r0, #8
 8002ad8:	d50c      	bpl.n	8002af4 <HAL_UART_Receive_IT+0x54>
 8002ada:	f3ef 8510 	mrs	r5, PRIMASK
 8002ade:	2001      	movs	r0, #1
 8002ae0:	f380 8810 	msr	PRIMASK, r0
 8002ae4:	2080      	movs	r0, #128	@ 0x80
 8002ae6:	681c      	ldr	r4, [r3, #0]
 8002ae8:	04c0      	lsls	r0, r0, #19
 8002aea:	6826      	ldr	r6, [r4, #0]
 8002aec:	4330      	orrs	r0, r6
 8002aee:	6020      	str	r0, [r4, #0]
 8002af0:	f385 8810 	msr	PRIMASK, r5
 8002af4:	0018      	movs	r0, r3
 8002af6:	f7ff ff39 	bl	800296c <UART_Start_Receive_IT>
 8002afa:	bd70      	pop	{r4, r5, r6, pc}

08002afc <HAL_RS485Ex_Init>:
 8002afc:	b5f7      	push	{r0, r1, r2, r4, r5, r6, r7, lr}
 8002afe:	0004      	movs	r4, r0
 8002b00:	000e      	movs	r6, r1
 8002b02:	001d      	movs	r5, r3
 8002b04:	9201      	str	r2, [sp, #4]
 8002b06:	2800      	cmp	r0, #0
 8002b08:	d101      	bne.n	8002b0e <HAL_RS485Ex_Init+0x12>
 8002b0a:	2001      	movs	r0, #1
 8002b0c:	bdfe      	pop	{r1, r2, r3, r4, r5, r6, r7, pc}
 8002b0e:	0007      	movs	r7, r0
 8002b10:	3788      	adds	r7, #136	@ 0x88
 8002b12:	683b      	ldr	r3, [r7, #0]
 8002b14:	2b00      	cmp	r3, #0
 8002b16:	d104      	bne.n	8002b22 <HAL_RS485Ex_Init+0x26>
 8002b18:	0002      	movs	r2, r0
 8002b1a:	3284      	adds	r2, #132	@ 0x84
 8002b1c:	7013      	strb	r3, [r2, #0]
 8002b1e:	f7fe f96f 	bl	8000e00 <HAL_UART_MspInit>
 8002b22:	2324      	movs	r3, #36	@ 0x24
 8002b24:	2101      	movs	r1, #1
 8002b26:	6822      	ldr	r2, [r4, #0]
 8002b28:	603b      	str	r3, [r7, #0]
 8002b2a:	6813      	ldr	r3, [r2, #0]
 8002b2c:	438b      	bics	r3, r1
 8002b2e:	6013      	str	r3, [r2, #0]
 8002b30:	6aa3      	ldr	r3, [r4, #40]	@ 0x28
 8002b32:	2b00      	cmp	r3, #0
 8002b34:	d002      	beq.n	8002b3c <HAL_RS485Ex_Init+0x40>
 8002b36:	0020      	movs	r0, r4
 8002b38:	f7ff fd98 	bl	800266c <UART_AdvFeatureConfig>
 8002b3c:	0020      	movs	r0, r4
 8002b3e:	f7ff fcd3 	bl	80024e8 <UART_SetConfig>
 8002b42:	2801      	cmp	r0, #1
 8002b44:	d0e1      	beq.n	8002b0a <HAL_RS485Ex_Init+0xe>
 8002b46:	2280      	movs	r2, #128	@ 0x80
 8002b48:	6823      	ldr	r3, [r4, #0]
 8002b4a:	01d2      	lsls	r2, r2, #7
 8002b4c:	6899      	ldr	r1, [r3, #8]
 8002b4e:	042d      	lsls	r5, r5, #16
 8002b50:	430a      	orrs	r2, r1
 8002b52:	609a      	str	r2, [r3, #8]
 8002b54:	689a      	ldr	r2, [r3, #8]
 8002b56:	490a      	ldr	r1, [pc, #40]	@ (8002b80 <HAL_RS485Ex_Init+0x84>)
 8002b58:	0020      	movs	r0, r4
 8002b5a:	400a      	ands	r2, r1
 8002b5c:	4332      	orrs	r2, r6
 8002b5e:	609a      	str	r2, [r3, #8]
 8002b60:	9a01      	ldr	r2, [sp, #4]
 8002b62:	0551      	lsls	r1, r2, #21
 8002b64:	430d      	orrs	r5, r1
 8002b66:	681a      	ldr	r2, [r3, #0]
 8002b68:	4906      	ldr	r1, [pc, #24]	@ (8002b84 <HAL_RS485Ex_Init+0x88>)
 8002b6a:	400a      	ands	r2, r1
 8002b6c:	4315      	orrs	r5, r2
 8002b6e:	2201      	movs	r2, #1
 8002b70:	601d      	str	r5, [r3, #0]
 8002b72:	6819      	ldr	r1, [r3, #0]
 8002b74:	430a      	orrs	r2, r1
 8002b76:	601a      	str	r2, [r3, #0]
 8002b78:	f7ff fe94 	bl	80028a4 <UART_CheckIdleState>
 8002b7c:	e7c6      	b.n	8002b0c <HAL_RS485Ex_Init+0x10>
 8002b7e:	46c0      	nop			@ (mov r8, r8)
 8002b80:	ffff7fff 	.word	0xffff7fff
 8002b84:	fc00ffff 	.word	0xfc00ffff

08002b88 <memset>:
 8002b88:	0003      	movs	r3, r0
 8002b8a:	1882      	adds	r2, r0, r2
 8002b8c:	4293      	cmp	r3, r2
 8002b8e:	d100      	bne.n	8002b92 <memset+0xa>
 8002b90:	4770      	bx	lr
 8002b92:	7019      	strb	r1, [r3, #0]
 8002b94:	3301      	adds	r3, #1
 8002b96:	e7f9      	b.n	8002b8c <memset+0x4>

08002b98 <__libc_init_array>:
 8002b98:	b570      	push	{r4, r5, r6, lr}
 8002b9a:	2600      	movs	r6, #0
 8002b9c:	4c0c      	ldr	r4, [pc, #48]	@ (8002bd0 <__libc_init_array+0x38>)
 8002b9e:	4d0d      	ldr	r5, [pc, #52]	@ (8002bd4 <__libc_init_array+0x3c>)
 8002ba0:	1b64      	subs	r4, r4, r5
 8002ba2:	10a4      	asrs	r4, r4, #2
 8002ba4:	42a6      	cmp	r6, r4
 8002ba6:	d109      	bne.n	8002bbc <__libc_init_array+0x24>
 8002ba8:	2600      	movs	r6, #0
 8002baa:	f000 f819 	bl	8002be0 <_init>
 8002bae:	4c0a      	ldr	r4, [pc, #40]	@ (8002bd8 <__libc_init_array+0x40>)
 8002bb0:	4d0a      	ldr	r5, [pc, #40]	@ (8002bdc <__libc_init_array+0x44>)
 8002bb2:	1b64      	subs	r4, r4, r5
 8002bb4:	10a4      	asrs	r4, r4, #2
 8002bb6:	42a6      	cmp	r6, r4
 8002bb8:	d105      	bne.n	8002bc6 <__libc_init_array+0x2e>
 8002bba:	bd70      	pop	{r4, r5, r6, pc}
 8002bbc:	00b3      	lsls	r3, r6, #2
 8002bbe:	58eb      	ldr	r3, [r5, r3]
 8002bc0:	4798      	blx	r3
 8002bc2:	3601      	adds	r6, #1
 8002bc4:	e7ee      	b.n	8002ba4 <__libc_init_array+0xc>
 8002bc6:	00b3      	lsls	r3, r6, #2
 8002bc8:	58eb      	ldr	r3, [r5, r3]
 8002bca:	4798      	blx	r3
 8002bcc:	3601      	adds	r6, #1
 8002bce:	e7f2      	b.n	8002bb6 <__libc_init_array+0x1e>
 8002bd0:	08002c8c 	.word	0x08002c8c
 8002bd4:	08002c8c 	.word	0x08002c8c
 8002bd8:	08002c90 	.word	0x08002c90
 8002bdc:	08002c8c 	.word	0x08002c8c

08002be0 <_init>:
 8002be0:	b5f8      	push	{r3, r4, r5, r6, r7, lr}
 8002be2:	46c0      	nop			@ (mov r8, r8)
 8002be4:	bcf8      	pop	{r3, r4, r5, r6, r7}
 8002be6:	bc08      	pop	{r3}
 8002be8:	469e      	mov	lr, r3
 8002bea:	4770      	bx	lr

08002bec <_fini>:
 8002bec:	b5f8      	push	{r3, r4, r5, r6, r7, lr}
 8002bee:	46c0      	nop			@ (mov r8, r8)
 8002bf0:	bcf8      	pop	{r3, r4, r5, r6, r7}
 8002bf2:	bc08      	pop	{r3}
 8002bf4:	469e      	mov	lr, r3
 8002bf6:	4770      	bx	lr

08002bf8 <__FLASH_Program_Fast_veneer>:
 8002bf8:	b401      	push	{r0}
 8002bfa:	4802      	ldr	r0, [pc, #8]	@ (8002c04 <__FLASH_Program_Fast_veneer+0xc>)
 8002bfc:	4684      	mov	ip, r0
 8002bfe:	bc01      	pop	{r0}
 8002c00:	4760      	bx	ip
 8002c02:	bf00      	nop
 8002c04:	20000031 	.word	0x20000031

Disassembly of section .data:

20000000 <init_speed>:
20000000:	00000190                                ....

20000004 <ramp_up_time>:
20000004:	00000064                                d...

20000008 <enabled>:
20000008:	                                         .

20000009 <alpha>:
20000009:	                                         P

2000000a <target_hit>:
2000000a:	                                         ..

2000000c <targetAngle>:
2000000c:	000003e8                                ....

20000010 <config>:
20000010:	deadbeef 04000063 00030800 000503e8     ....c...........
20000020:	00000001                                ....

20000024 <SystemCoreClock>:
20000024:	00b71b00                                ....

20000028 <uwTickFreq>:
20000028:	00000001                                ....

2000002c <uwTickPrio>:
2000002c:	00000004                                ....

20000030 <FLASH_Program_Fast>:
20000030:	2280      	movs	r2, #128	@ 0x80
20000032:	4b0c      	ldr	r3, [pc, #48]	@ (20000064 <FLASH_Program_Fast+0x34>)
20000034:	b530      	push	{r4, r5, lr}
20000036:	695c      	ldr	r4, [r3, #20]
20000038:	02d2      	lsls	r2, r2, #11
2000003a:	4322      	orrs	r2, r4
2000003c:	615a      	str	r2, [r3, #20]
2000003e:	f3ef 8210 	mrs	r2, PRIMASK
20000042:	b672      	cpsid	i
20000044:	1c4c      	adds	r4, r1, #1
20000046:	34ff      	adds	r4, #255	@ 0xff
20000048:	1a40      	subs	r0, r0, r1
2000004a:	680d      	ldr	r5, [r1, #0]
2000004c:	5045      	str	r5, [r0, r1]
2000004e:	3104      	adds	r1, #4
20000050:	42a1      	cmp	r1, r4
20000052:	d1fa      	bne.n	2000004a <FLASH_Program_Fast+0x1a>
20000054:	2180      	movs	r1, #128	@ 0x80
20000056:	0249      	lsls	r1, r1, #9
20000058:	6918      	ldr	r0, [r3, #16]
2000005a:	4208      	tst	r0, r1
2000005c:	d1fc      	bne.n	20000058 <FLASH_Program_Fast+0x28>
2000005e:	f382 8810 	msr	PRIMASK, r2
20000062:	bd30      	pop	{r4, r5, pc}
20000064:	40022000 	.word	0x40022000
